
ZAVRSNI_RX_F446RE.elf:     file format elf32-littlearm

Sections:
Idx Name          Size      VMA       LMA       File off  Algn
  0 .isr_vector   000001c4  08000000  08000000  00010000  2**0
                  CONTENTS, ALLOC, LOAD, READONLY, DATA
  1 .text         00004ce0  080001d0  080001d0  000101d0  2**4
                  CONTENTS, ALLOC, LOAD, READONLY, CODE
  2 .rodata       00000130  08004eb0  08004eb0  00014eb0  2**2
                  CONTENTS, ALLOC, LOAD, READONLY, DATA
  3 .ARM.extab    00000000  08004fe0  08004fe0  00020020  2**0
                  CONTENTS
  4 .ARM          00000008  08004fe0  08004fe0  00014fe0  2**2
                  CONTENTS, ALLOC, LOAD, READONLY, DATA
  5 .preinit_array 00000000  08004fe8  08004fe8  00020020  2**0
                  CONTENTS, ALLOC, LOAD, DATA
  6 .init_array   00000004  08004fe8  08004fe8  00014fe8  2**2
                  CONTENTS, ALLOC, LOAD, DATA
  7 .fini_array   00000004  08004fec  08004fec  00014fec  2**2
                  CONTENTS, ALLOC, LOAD, DATA
  8 .data         00000020  20000000  08004ff0  00020000  2**2
                  CONTENTS, ALLOC, LOAD, DATA
  9 .bss          00004b64  20000020  08005010  00020020  2**2
                  ALLOC
 10 ._user_heap_stack 00000604  20004b84  08005010  00024b84  2**0
                  ALLOC
 11 .ARM.attributes 00000030  00000000  00000000  00020020  2**0
                  CONTENTS, READONLY
 12 .comment      00000043  00000000  00000000  00020050  2**0
                  CONTENTS, READONLY
 13 .debug_frame  000000d4  00000000  00000000  00020094  2**2
                  CONTENTS, READONLY, DEBUGGING, OCTETS

Disassembly of section .text:

080001d0 <__do_global_dtors_aux>:
 80001d0:	b510      	push	{r4, lr}
 80001d2:	4c05      	ldr	r4, [pc, #20]	; (80001e8 <__do_global_dtors_aux+0x18>)
 80001d4:	7823      	ldrb	r3, [r4, #0]
 80001d6:	b933      	cbnz	r3, 80001e6 <__do_global_dtors_aux+0x16>
 80001d8:	4b04      	ldr	r3, [pc, #16]	; (80001ec <__do_global_dtors_aux+0x1c>)
 80001da:	b113      	cbz	r3, 80001e2 <__do_global_dtors_aux+0x12>
 80001dc:	4804      	ldr	r0, [pc, #16]	; (80001f0 <__do_global_dtors_aux+0x20>)
 80001de:	f3af 8000 	nop.w
 80001e2:	2301      	movs	r3, #1
 80001e4:	7023      	strb	r3, [r4, #0]
 80001e6:	bd10      	pop	{r4, pc}
 80001e8:	20000020 	.word	0x20000020
 80001ec:	00000000 	.word	0x00000000
 80001f0:	08004e98 	.word	0x08004e98

080001f4 <frame_dummy>:
 80001f4:	b508      	push	{r3, lr}
 80001f6:	4b03      	ldr	r3, [pc, #12]	; (8000204 <frame_dummy+0x10>)
 80001f8:	b11b      	cbz	r3, 8000202 <frame_dummy+0xe>
 80001fa:	4903      	ldr	r1, [pc, #12]	; (8000208 <frame_dummy+0x14>)
 80001fc:	4803      	ldr	r0, [pc, #12]	; (800020c <frame_dummy+0x18>)
 80001fe:	f3af 8000 	nop.w
 8000202:	bd08      	pop	{r3, pc}
 8000204:	00000000 	.word	0x00000000
 8000208:	20000024 	.word	0x20000024
 800020c:	08004e98 	.word	0x08004e98

08000210 <__aeabi_uldivmod>:
 8000210:	b953      	cbnz	r3, 8000228 <__aeabi_uldivmod+0x18>
 8000212:	b94a      	cbnz	r2, 8000228 <__aeabi_uldivmod+0x18>
 8000214:	2900      	cmp	r1, #0
 8000216:	bf08      	it	eq
 8000218:	2800      	cmpeq	r0, #0
 800021a:	bf1c      	itt	ne
 800021c:	f04f 31ff 	movne.w	r1, #4294967295
 8000220:	f04f 30ff 	movne.w	r0, #4294967295
 8000224:	f000 b970 	b.w	8000508 <__aeabi_idiv0>
 8000228:	f1ad 0c08 	sub.w	ip, sp, #8
 800022c:	e96d ce04 	strd	ip, lr, [sp, #-16]!
 8000230:	f000 f806 	bl	8000240 <__udivmoddi4>
 8000234:	f8dd e004 	ldr.w	lr, [sp, #4]
 8000238:	e9dd 2302 	ldrd	r2, r3, [sp, #8]
 800023c:	b004      	add	sp, #16
 800023e:	4770      	bx	lr

08000240 <__udivmoddi4>:
 8000240:	e92d 47f0 	stmdb	sp!, {r4, r5, r6, r7, r8, r9, sl, lr}
 8000244:	9e08      	ldr	r6, [sp, #32]
 8000246:	460d      	mov	r5, r1
 8000248:	4604      	mov	r4, r0
 800024a:	460f      	mov	r7, r1
 800024c:	2b00      	cmp	r3, #0
 800024e:	d14a      	bne.n	80002e6 <__udivmoddi4+0xa6>
 8000250:	428a      	cmp	r2, r1
 8000252:	4694      	mov	ip, r2
 8000254:	d965      	bls.n	8000322 <__udivmoddi4+0xe2>
 8000256:	fab2 f382 	clz	r3, r2
 800025a:	b143      	cbz	r3, 800026e <__udivmoddi4+0x2e>
 800025c:	fa02 fc03 	lsl.w	ip, r2, r3
 8000260:	f1c3 0220 	rsb	r2, r3, #32
 8000264:	409f      	lsls	r7, r3
 8000266:	fa20 f202 	lsr.w	r2, r0, r2
 800026a:	4317      	orrs	r7, r2
 800026c:	409c      	lsls	r4, r3
 800026e:	ea4f 4e1c 	mov.w	lr, ip, lsr #16
 8000272:	fa1f f58c 	uxth.w	r5, ip
 8000276:	fbb7 f1fe 	udiv	r1, r7, lr
 800027a:	0c22      	lsrs	r2, r4, #16
 800027c:	fb0e 7711 	mls	r7, lr, r1, r7
 8000280:	ea42 4207 	orr.w	r2, r2, r7, lsl #16
 8000284:	fb01 f005 	mul.w	r0, r1, r5
 8000288:	4290      	cmp	r0, r2
 800028a:	d90a      	bls.n	80002a2 <__udivmoddi4+0x62>
 800028c:	eb1c 0202 	adds.w	r2, ip, r2
 8000290:	f101 37ff 	add.w	r7, r1, #4294967295
 8000294:	f080 811c 	bcs.w	80004d0 <__udivmoddi4+0x290>
 8000298:	4290      	cmp	r0, r2
 800029a:	f240 8119 	bls.w	80004d0 <__udivmoddi4+0x290>
 800029e:	3902      	subs	r1, #2
 80002a0:	4462      	add	r2, ip
 80002a2:	1a12      	subs	r2, r2, r0
 80002a4:	b2a4      	uxth	r4, r4
 80002a6:	fbb2 f0fe 	udiv	r0, r2, lr
 80002aa:	fb0e 2210 	mls	r2, lr, r0, r2
 80002ae:	ea44 4402 	orr.w	r4, r4, r2, lsl #16
 80002b2:	fb00 f505 	mul.w	r5, r0, r5
 80002b6:	42a5      	cmp	r5, r4
 80002b8:	d90a      	bls.n	80002d0 <__udivmoddi4+0x90>
 80002ba:	eb1c 0404 	adds.w	r4, ip, r4
 80002be:	f100 32ff 	add.w	r2, r0, #4294967295
 80002c2:	f080 8107 	bcs.w	80004d4 <__udivmoddi4+0x294>
 80002c6:	42a5      	cmp	r5, r4
 80002c8:	f240 8104 	bls.w	80004d4 <__udivmoddi4+0x294>
 80002cc:	4464      	add	r4, ip
 80002ce:	3802      	subs	r0, #2
 80002d0:	ea40 4001 	orr.w	r0, r0, r1, lsl #16
 80002d4:	1b64      	subs	r4, r4, r5
 80002d6:	2100      	movs	r1, #0
 80002d8:	b11e      	cbz	r6, 80002e2 <__udivmoddi4+0xa2>
 80002da:	40dc      	lsrs	r4, r3
 80002dc:	2300      	movs	r3, #0
 80002de:	e9c6 4300 	strd	r4, r3, [r6]
 80002e2:	e8bd 87f0 	ldmia.w	sp!, {r4, r5, r6, r7, r8, r9, sl, pc}
 80002e6:	428b      	cmp	r3, r1
 80002e8:	d908      	bls.n	80002fc <__udivmoddi4+0xbc>
 80002ea:	2e00      	cmp	r6, #0
 80002ec:	f000 80ed 	beq.w	80004ca <__udivmoddi4+0x28a>
 80002f0:	2100      	movs	r1, #0
 80002f2:	e9c6 0500 	strd	r0, r5, [r6]
 80002f6:	4608      	mov	r0, r1
 80002f8:	e8bd 87f0 	ldmia.w	sp!, {r4, r5, r6, r7, r8, r9, sl, pc}
 80002fc:	fab3 f183 	clz	r1, r3
 8000300:	2900      	cmp	r1, #0
 8000302:	d149      	bne.n	8000398 <__udivmoddi4+0x158>
 8000304:	42ab      	cmp	r3, r5
 8000306:	d302      	bcc.n	800030e <__udivmoddi4+0xce>
 8000308:	4282      	cmp	r2, r0
 800030a:	f200 80f8 	bhi.w	80004fe <__udivmoddi4+0x2be>
 800030e:	1a84      	subs	r4, r0, r2
 8000310:	eb65 0203 	sbc.w	r2, r5, r3
 8000314:	2001      	movs	r0, #1
 8000316:	4617      	mov	r7, r2
 8000318:	2e00      	cmp	r6, #0
 800031a:	d0e2      	beq.n	80002e2 <__udivmoddi4+0xa2>
 800031c:	e9c6 4700 	strd	r4, r7, [r6]
 8000320:	e7df      	b.n	80002e2 <__udivmoddi4+0xa2>
 8000322:	b902      	cbnz	r2, 8000326 <__udivmoddi4+0xe6>
 8000324:	deff      	udf	#255	; 0xff
 8000326:	fab2 f382 	clz	r3, r2
 800032a:	2b00      	cmp	r3, #0
 800032c:	f040 8090 	bne.w	8000450 <__udivmoddi4+0x210>
 8000330:	1a8a      	subs	r2, r1, r2
 8000332:	ea4f 471c 	mov.w	r7, ip, lsr #16
 8000336:	fa1f fe8c 	uxth.w	lr, ip
 800033a:	2101      	movs	r1, #1
 800033c:	fbb2 f5f7 	udiv	r5, r2, r7
 8000340:	fb07 2015 	mls	r0, r7, r5, r2
 8000344:	0c22      	lsrs	r2, r4, #16
 8000346:	ea42 4200 	orr.w	r2, r2, r0, lsl #16
 800034a:	fb0e f005 	mul.w	r0, lr, r5
 800034e:	4290      	cmp	r0, r2
 8000350:	d908      	bls.n	8000364 <__udivmoddi4+0x124>
 8000352:	eb1c 0202 	adds.w	r2, ip, r2
 8000356:	f105 38ff 	add.w	r8, r5, #4294967295
 800035a:	d202      	bcs.n	8000362 <__udivmoddi4+0x122>
 800035c:	4290      	cmp	r0, r2
 800035e:	f200 80cb 	bhi.w	80004f8 <__udivmoddi4+0x2b8>
 8000362:	4645      	mov	r5, r8
 8000364:	1a12      	subs	r2, r2, r0
 8000366:	b2a4      	uxth	r4, r4
 8000368:	fbb2 f0f7 	udiv	r0, r2, r7
 800036c:	fb07 2210 	mls	r2, r7, r0, r2
 8000370:	ea44 4402 	orr.w	r4, r4, r2, lsl #16
 8000374:	fb0e fe00 	mul.w	lr, lr, r0
 8000378:	45a6      	cmp	lr, r4
 800037a:	d908      	bls.n	800038e <__udivmoddi4+0x14e>
 800037c:	eb1c 0404 	adds.w	r4, ip, r4
 8000380:	f100 32ff 	add.w	r2, r0, #4294967295
 8000384:	d202      	bcs.n	800038c <__udivmoddi4+0x14c>
 8000386:	45a6      	cmp	lr, r4
 8000388:	f200 80bb 	bhi.w	8000502 <__udivmoddi4+0x2c2>
 800038c:	4610      	mov	r0, r2
 800038e:	eba4 040e 	sub.w	r4, r4, lr
 8000392:	ea40 4005 	orr.w	r0, r0, r5, lsl #16
 8000396:	e79f      	b.n	80002d8 <__udivmoddi4+0x98>
 8000398:	f1c1 0720 	rsb	r7, r1, #32
 800039c:	408b      	lsls	r3, r1
 800039e:	fa22 fc07 	lsr.w	ip, r2, r7
 80003a2:	ea4c 0c03 	orr.w	ip, ip, r3
 80003a6:	fa05 f401 	lsl.w	r4, r5, r1
 80003aa:	fa20 f307 	lsr.w	r3, r0, r7
 80003ae:	40fd      	lsrs	r5, r7
 80003b0:	ea4f 491c 	mov.w	r9, ip, lsr #16
 80003b4:	4323      	orrs	r3, r4
 80003b6:	fbb5 f8f9 	udiv	r8, r5, r9
 80003ba:	fa1f fe8c 	uxth.w	lr, ip
 80003be:	fb09 5518 	mls	r5, r9, r8, r5
 80003c2:	0c1c      	lsrs	r4, r3, #16
 80003c4:	ea44 4405 	orr.w	r4, r4, r5, lsl #16
 80003c8:	fb08 f50e 	mul.w	r5, r8, lr
 80003cc:	42a5      	cmp	r5, r4
 80003ce:	fa02 f201 	lsl.w	r2, r2, r1
 80003d2:	fa00 f001 	lsl.w	r0, r0, r1
 80003d6:	d90b      	bls.n	80003f0 <__udivmoddi4+0x1b0>
 80003d8:	eb1c 0404 	adds.w	r4, ip, r4
 80003dc:	f108 3aff 	add.w	sl, r8, #4294967295
 80003e0:	f080 8088 	bcs.w	80004f4 <__udivmoddi4+0x2b4>
 80003e4:	42a5      	cmp	r5, r4
 80003e6:	f240 8085 	bls.w	80004f4 <__udivmoddi4+0x2b4>
 80003ea:	f1a8 0802 	sub.w	r8, r8, #2
 80003ee:	4464      	add	r4, ip
 80003f0:	1b64      	subs	r4, r4, r5
 80003f2:	b29d      	uxth	r5, r3
 80003f4:	fbb4 f3f9 	udiv	r3, r4, r9
 80003f8:	fb09 4413 	mls	r4, r9, r3, r4
 80003fc:	ea45 4404 	orr.w	r4, r5, r4, lsl #16
 8000400:	fb03 fe0e 	mul.w	lr, r3, lr
 8000404:	45a6      	cmp	lr, r4
 8000406:	d908      	bls.n	800041a <__udivmoddi4+0x1da>
 8000408:	eb1c 0404 	adds.w	r4, ip, r4
 800040c:	f103 35ff 	add.w	r5, r3, #4294967295
 8000410:	d26c      	bcs.n	80004ec <__udivmoddi4+0x2ac>
 8000412:	45a6      	cmp	lr, r4
 8000414:	d96a      	bls.n	80004ec <__udivmoddi4+0x2ac>
 8000416:	3b02      	subs	r3, #2
 8000418:	4464      	add	r4, ip
 800041a:	ea43 4308 	orr.w	r3, r3, r8, lsl #16
 800041e:	fba3 9502 	umull	r9, r5, r3, r2
 8000422:	eba4 040e 	sub.w	r4, r4, lr
 8000426:	42ac      	cmp	r4, r5
 8000428:	46c8      	mov	r8, r9
 800042a:	46ae      	mov	lr, r5
 800042c:	d356      	bcc.n	80004dc <__udivmoddi4+0x29c>
 800042e:	d053      	beq.n	80004d8 <__udivmoddi4+0x298>
 8000430:	b156      	cbz	r6, 8000448 <__udivmoddi4+0x208>
 8000432:	ebb0 0208 	subs.w	r2, r0, r8
 8000436:	eb64 040e 	sbc.w	r4, r4, lr
 800043a:	fa04 f707 	lsl.w	r7, r4, r7
 800043e:	40ca      	lsrs	r2, r1
 8000440:	40cc      	lsrs	r4, r1
 8000442:	4317      	orrs	r7, r2
 8000444:	e9c6 7400 	strd	r7, r4, [r6]
 8000448:	4618      	mov	r0, r3
 800044a:	2100      	movs	r1, #0
 800044c:	e8bd 87f0 	ldmia.w	sp!, {r4, r5, r6, r7, r8, r9, sl, pc}
 8000450:	f1c3 0120 	rsb	r1, r3, #32
 8000454:	fa02 fc03 	lsl.w	ip, r2, r3
 8000458:	fa20 f201 	lsr.w	r2, r0, r1
 800045c:	fa25 f101 	lsr.w	r1, r5, r1
 8000460:	409d      	lsls	r5, r3
 8000462:	432a      	orrs	r2, r5
 8000464:	ea4f 471c 	mov.w	r7, ip, lsr #16
 8000468:	fa1f fe8c 	uxth.w	lr, ip
 800046c:	fbb1 f0f7 	udiv	r0, r1, r7
 8000470:	fb07 1510 	mls	r5, r7, r0, r1
 8000474:	0c11      	lsrs	r1, r2, #16
 8000476:	ea41 4105 	orr.w	r1, r1, r5, lsl #16
 800047a:	fb00 f50e 	mul.w	r5, r0, lr
 800047e:	428d      	cmp	r5, r1
 8000480:	fa04 f403 	lsl.w	r4, r4, r3
 8000484:	d908      	bls.n	8000498 <__udivmoddi4+0x258>
 8000486:	eb1c 0101 	adds.w	r1, ip, r1
 800048a:	f100 38ff 	add.w	r8, r0, #4294967295
 800048e:	d22f      	bcs.n	80004f0 <__udivmoddi4+0x2b0>
 8000490:	428d      	cmp	r5, r1
 8000492:	d92d      	bls.n	80004f0 <__udivmoddi4+0x2b0>
 8000494:	3802      	subs	r0, #2
 8000496:	4461      	add	r1, ip
 8000498:	1b49      	subs	r1, r1, r5
 800049a:	b292      	uxth	r2, r2
 800049c:	fbb1 f5f7 	udiv	r5, r1, r7
 80004a0:	fb07 1115 	mls	r1, r7, r5, r1
 80004a4:	ea42 4201 	orr.w	r2, r2, r1, lsl #16
 80004a8:	fb05 f10e 	mul.w	r1, r5, lr
 80004ac:	4291      	cmp	r1, r2
 80004ae:	d908      	bls.n	80004c2 <__udivmoddi4+0x282>
 80004b0:	eb1c 0202 	adds.w	r2, ip, r2
 80004b4:	f105 38ff 	add.w	r8, r5, #4294967295
 80004b8:	d216      	bcs.n	80004e8 <__udivmoddi4+0x2a8>
 80004ba:	4291      	cmp	r1, r2
 80004bc:	d914      	bls.n	80004e8 <__udivmoddi4+0x2a8>
 80004be:	3d02      	subs	r5, #2
 80004c0:	4462      	add	r2, ip
 80004c2:	1a52      	subs	r2, r2, r1
 80004c4:	ea45 4100 	orr.w	r1, r5, r0, lsl #16
 80004c8:	e738      	b.n	800033c <__udivmoddi4+0xfc>
 80004ca:	4631      	mov	r1, r6
 80004cc:	4630      	mov	r0, r6
 80004ce:	e708      	b.n	80002e2 <__udivmoddi4+0xa2>
 80004d0:	4639      	mov	r1, r7
 80004d2:	e6e6      	b.n	80002a2 <__udivmoddi4+0x62>
 80004d4:	4610      	mov	r0, r2
 80004d6:	e6fb      	b.n	80002d0 <__udivmoddi4+0x90>
 80004d8:	4548      	cmp	r0, r9
 80004da:	d2a9      	bcs.n	8000430 <__udivmoddi4+0x1f0>
 80004dc:	ebb9 0802 	subs.w	r8, r9, r2
 80004e0:	eb65 0e0c 	sbc.w	lr, r5, ip
 80004e4:	3b01      	subs	r3, #1
 80004e6:	e7a3      	b.n	8000430 <__udivmoddi4+0x1f0>
 80004e8:	4645      	mov	r5, r8
 80004ea:	e7ea      	b.n	80004c2 <__udivmoddi4+0x282>
 80004ec:	462b      	mov	r3, r5
 80004ee:	e794      	b.n	800041a <__udivmoddi4+0x1da>
 80004f0:	4640      	mov	r0, r8
 80004f2:	e7d1      	b.n	8000498 <__udivmoddi4+0x258>
 80004f4:	46d0      	mov	r8, sl
 80004f6:	e77b      	b.n	80003f0 <__udivmoddi4+0x1b0>
 80004f8:	3d02      	subs	r5, #2
 80004fa:	4462      	add	r2, ip
 80004fc:	e732      	b.n	8000364 <__udivmoddi4+0x124>
 80004fe:	4608      	mov	r0, r1
 8000500:	e70a      	b.n	8000318 <__udivmoddi4+0xd8>
 8000502:	4464      	add	r4, ip
 8000504:	3802      	subs	r0, #2
 8000506:	e742      	b.n	800038e <__udivmoddi4+0x14e>

08000508 <__aeabi_idiv0>:
 8000508:	4770      	bx	lr
 800050a:	bf00      	nop

0800050c <SPI_CS_WRITE.part.0>:
 800050c:	4802      	ldr	r0, [pc, #8]	; (8000518 <SPI_CS_WRITE.part.0+0xc>)
 800050e:	2201      	movs	r2, #1
 8000510:	2120      	movs	r1, #32
 8000512:	f001 b981 	b.w	8001818 <HAL_GPIO_WritePin>
 8000516:	bf00      	nop
 8000518:	40020400 	.word	0x40020400

0800051c <SPI_CS_WRITE>:
 800051c:	4602      	mov	r2, r0
 800051e:	b108      	cbz	r0, 8000524 <SPI_CS_WRITE+0x8>
 8000520:	f7ff bff4 	b.w	800050c <SPI_CS_WRITE.part.0>
 8000524:	4801      	ldr	r0, [pc, #4]	; (800052c <SPI_CS_WRITE+0x10>)
 8000526:	2120      	movs	r1, #32
 8000528:	f001 b976 	b.w	8001818 <HAL_GPIO_WritePin>
 800052c:	40020400 	.word	0x40020400

08000530 <command_strobe>:
 8000530:	b510      	push	{r4, lr}
 8000532:	b086      	sub	sp, #24
 8000534:	4c11      	ldr	r4, [pc, #68]	; (800057c <command_strobe+0x4c>)
 8000536:	f88d 000f 	strb.w	r0, [sp, #15]
 800053a:	f44f 707a 	mov.w	r0, #1000	; 0x3e8
 800053e:	f000 ff77 	bl	8001430 <delay_us>
 8000542:	2000      	movs	r0, #0
 8000544:	f7ff ffea 	bl	800051c <SPI_CS_WRITE>
 8000548:	2104      	movs	r1, #4
 800054a:	4620      	mov	r0, r4
 800054c:	f001 f95e 	bl	800180c <HAL_GPIO_ReadPin>
 8000550:	2800      	cmp	r0, #0
 8000552:	d1f9      	bne.n	8000548 <command_strobe+0x18>
 8000554:	f04f 33ff 	mov.w	r3, #4294967295
 8000558:	9300      	str	r3, [sp, #0]
 800055a:	f10d 0217 	add.w	r2, sp, #23
 800055e:	2301      	movs	r3, #1
 8000560:	f10d 010f 	add.w	r1, sp, #15
 8000564:	4806      	ldr	r0, [pc, #24]	; (8000580 <command_strobe+0x50>)
 8000566:	f001 ff79 	bl	800245c <HAL_SPI_TransmitReceive>
 800056a:	f88d 0017 	strb.w	r0, [sp, #23]
 800056e:	f7ff ffcd 	bl	800050c <SPI_CS_WRITE.part.0>
 8000572:	f89d 0017 	ldrb.w	r0, [sp, #23]
 8000576:	b006      	add	sp, #24
 8000578:	bd10      	pop	{r4, pc}
 800057a:	bf00      	nop
 800057c:	40020800 	.word	0x40020800
 8000580:	200000ac 	.word	0x200000ac

08000584 <manual_POR>:
 8000584:	b510      	push	{r4, lr}
 8000586:	2000      	movs	r0, #0
 8000588:	f7ff ffc8 	bl	800051c <SPI_CS_WRITE>
 800058c:	2001      	movs	r0, #1
 800058e:	f000 ff4f 	bl	8001430 <delay_us>
 8000592:	f7ff ffbb 	bl	800050c <SPI_CS_WRITE.part.0>
 8000596:	2029      	movs	r0, #41	; 0x29
 8000598:	f000 ff4a 	bl	8001430 <delay_us>
 800059c:	2000      	movs	r0, #0
 800059e:	f7ff ffbd 	bl	800051c <SPI_CS_WRITE>
 80005a2:	4c07      	ldr	r4, [pc, #28]	; (80005c0 <manual_POR+0x3c>)
 80005a4:	2104      	movs	r1, #4
 80005a6:	4620      	mov	r0, r4
 80005a8:	f001 f930 	bl	800180c <HAL_GPIO_ReadPin>
 80005ac:	2800      	cmp	r0, #0
 80005ae:	d1f9      	bne.n	80005a4 <manual_POR+0x20>
 80005b0:	2030      	movs	r0, #48	; 0x30
 80005b2:	f7ff ffbd 	bl	8000530 <command_strobe>
 80005b6:	e8bd 4010 	ldmia.w	sp!, {r4, lr}
 80005ba:	f7ff bfa7 	b.w	800050c <SPI_CS_WRITE.part.0>
 80005be:	bf00      	nop
 80005c0:	40020800 	.word	0x40020800

080005c4 <read_status_reg>:
 80005c4:	b530      	push	{r4, r5, lr}
 80005c6:	b085      	sub	sp, #20
 80005c8:	f060 033f 	orn	r3, r0, #63	; 0x3f
 80005cc:	f88d 300d 	strb.w	r3, [sp, #13]
 80005d0:	f1a0 0330 	sub.w	r3, r0, #48	; 0x30
 80005d4:	2401      	movs	r4, #1
 80005d6:	2b0d      	cmp	r3, #13
 80005d8:	460d      	mov	r5, r1
 80005da:	f88d 400f 	strb.w	r4, [sp, #15]
 80005de:	d828      	bhi.n	8000632 <read_status_reg+0x6e>
 80005e0:	2000      	movs	r0, #0
 80005e2:	f7ff ff9b 	bl	800051c <SPI_CS_WRITE>
 80005e6:	4c14      	ldr	r4, [pc, #80]	; (8000638 <read_status_reg+0x74>)
 80005e8:	2104      	movs	r1, #4
 80005ea:	4620      	mov	r0, r4
 80005ec:	f001 f90e 	bl	800180c <HAL_GPIO_ReadPin>
 80005f0:	2800      	cmp	r0, #0
 80005f2:	d1f9      	bne.n	80005e8 <read_status_reg+0x24>
 80005f4:	f04f 34ff 	mov.w	r4, #4294967295
 80005f8:	2301      	movs	r3, #1
 80005fa:	462a      	mov	r2, r5
 80005fc:	f10d 010d 	add.w	r1, sp, #13
 8000600:	480e      	ldr	r0, [pc, #56]	; (800063c <read_status_reg+0x78>)
 8000602:	9400      	str	r4, [sp, #0]
 8000604:	f001 ff2a 	bl	800245c <HAL_SPI_TransmitReceive>
 8000608:	2010      	movs	r0, #16
 800060a:	f000 ff07 	bl	800141c <delay_6_25ns>
 800060e:	2301      	movs	r3, #1
 8000610:	f10d 020e 	add.w	r2, sp, #14
 8000614:	f10d 010f 	add.w	r1, sp, #15
 8000618:	4808      	ldr	r0, [pc, #32]	; (800063c <read_status_reg+0x78>)
 800061a:	9400      	str	r4, [sp, #0]
 800061c:	f001 ff1e 	bl	800245c <HAL_SPI_TransmitReceive>
 8000620:	2010      	movs	r0, #16
 8000622:	f000 fefb 	bl	800141c <delay_6_25ns>
 8000626:	f7ff ff71 	bl	800050c <SPI_CS_WRITE.part.0>
 800062a:	f89d 000e 	ldrb.w	r0, [sp, #14]
 800062e:	b005      	add	sp, #20
 8000630:	bd30      	pop	{r4, r5, pc}
 8000632:	4620      	mov	r0, r4
 8000634:	e7fb      	b.n	800062e <read_status_reg+0x6a>
 8000636:	bf00      	nop
 8000638:	40020800 	.word	0x40020800
 800063c:	200000ac 	.word	0x200000ac

08000640 <write_single_byte>:
 8000640:	b51f      	push	{r0, r1, r2, r3, r4, lr}
 8000642:	f88d 000e 	strb.w	r0, [sp, #14]
 8000646:	2000      	movs	r0, #0
 8000648:	f88d 100f 	strb.w	r1, [sp, #15]
 800064c:	f7ff ff66 	bl	800051c <SPI_CS_WRITE>
 8000650:	4c11      	ldr	r4, [pc, #68]	; (8000698 <write_single_byte+0x58>)
 8000652:	2104      	movs	r1, #4
 8000654:	4620      	mov	r0, r4
 8000656:	f001 f8d9 	bl	800180c <HAL_GPIO_ReadPin>
 800065a:	2800      	cmp	r0, #0
 800065c:	d1f9      	bne.n	8000652 <write_single_byte+0x12>
 800065e:	f04f 34ff 	mov.w	r4, #4294967295
 8000662:	f10d 020d 	add.w	r2, sp, #13
 8000666:	f10d 010e 	add.w	r1, sp, #14
 800066a:	2301      	movs	r3, #1
 800066c:	9400      	str	r4, [sp, #0]
 800066e:	480b      	ldr	r0, [pc, #44]	; (800069c <write_single_byte+0x5c>)
 8000670:	f001 fef4 	bl	800245c <HAL_SPI_TransmitReceive>
 8000674:	2010      	movs	r0, #16
 8000676:	f000 fed1 	bl	800141c <delay_6_25ns>
 800067a:	2301      	movs	r3, #1
 800067c:	f10d 020d 	add.w	r2, sp, #13
 8000680:	f10d 010f 	add.w	r1, sp, #15
 8000684:	9400      	str	r4, [sp, #0]
 8000686:	4805      	ldr	r0, [pc, #20]	; (800069c <write_single_byte+0x5c>)
 8000688:	f001 fee8 	bl	800245c <HAL_SPI_TransmitReceive>
 800068c:	f7ff ff3e 	bl	800050c <SPI_CS_WRITE.part.0>
 8000690:	f89d 000d 	ldrb.w	r0, [sp, #13]
 8000694:	b004      	add	sp, #16
 8000696:	bd10      	pop	{r4, pc}
 8000698:	40020800 	.word	0x40020800
 800069c:	200000ac 	.word	0x200000ac

080006a0 <write_tx_cc1101_config>:
 80006a0:	b508      	push	{r3, lr}
 80006a2:	21c0      	movs	r1, #192	; 0xc0
 80006a4:	203e      	movs	r0, #62	; 0x3e
 80006a6:	f7ff ffcb 	bl	8000640 <write_single_byte>
 80006aa:	2106      	movs	r1, #6
 80006ac:	2002      	movs	r0, #2
 80006ae:	f7ff ffc7 	bl	8000640 <write_single_byte>
 80006b2:	2147      	movs	r1, #71	; 0x47
 80006b4:	2003      	movs	r0, #3
 80006b6:	f7ff ffc3 	bl	8000640 <write_single_byte>
 80006ba:	21f1      	movs	r1, #241	; 0xf1
 80006bc:	2004      	movs	r0, #4
 80006be:	f7ff ffbf 	bl	8000640 <write_single_byte>
 80006c2:	2177      	movs	r1, #119	; 0x77
 80006c4:	2005      	movs	r0, #5
 80006c6:	f7ff ffbb 	bl	8000640 <write_single_byte>
 80006ca:	2105      	movs	r1, #5
 80006cc:	2008      	movs	r0, #8
 80006ce:	f7ff ffb7 	bl	8000640 <write_single_byte>
 80006d2:	2108      	movs	r1, #8
 80006d4:	200b      	movs	r0, #11
 80006d6:	f7ff ffb3 	bl	8000640 <write_single_byte>
 80006da:	2110      	movs	r1, #16
 80006dc:	200d      	movs	r0, #13
 80006de:	f7ff ffaf 	bl	8000640 <write_single_byte>
 80006e2:	21b4      	movs	r1, #180	; 0xb4
 80006e4:	200e      	movs	r0, #14
 80006e6:	f7ff ffab 	bl	8000640 <write_single_byte>
 80006ea:	212e      	movs	r1, #46	; 0x2e
 80006ec:	200f      	movs	r0, #15
 80006ee:	f7ff ffa7 	bl	8000640 <write_single_byte>
 80006f2:	21ca      	movs	r1, #202	; 0xca
 80006f4:	2010      	movs	r0, #16
 80006f6:	f7ff ffa3 	bl	8000640 <write_single_byte>
 80006fa:	2183      	movs	r1, #131	; 0x83
 80006fc:	2011      	movs	r0, #17
 80006fe:	f7ff ff9f 	bl	8000640 <write_single_byte>
 8000702:	2197      	movs	r1, #151	; 0x97
 8000704:	2012      	movs	r0, #18
 8000706:	f7ff ff9b 	bl	8000640 <write_single_byte>
 800070a:	2132      	movs	r1, #50	; 0x32
 800070c:	2013      	movs	r0, #19
 800070e:	f7ff ff97 	bl	8000640 <write_single_byte>
 8000712:	2134      	movs	r1, #52	; 0x34
 8000714:	2015      	movs	r0, #21
 8000716:	f7ff ff93 	bl	8000640 <write_single_byte>
 800071a:	2118      	movs	r1, #24
 800071c:	4608      	mov	r0, r1
 800071e:	f7ff ff8f 	bl	8000640 <write_single_byte>
 8000722:	2116      	movs	r1, #22
 8000724:	2019      	movs	r0, #25
 8000726:	f7ff ff8b 	bl	8000640 <write_single_byte>
 800072a:	2143      	movs	r1, #67	; 0x43
 800072c:	201b      	movs	r0, #27
 800072e:	f7ff ff87 	bl	8000640 <write_single_byte>
 8000732:	21e9      	movs	r1, #233	; 0xe9
 8000734:	2023      	movs	r0, #35	; 0x23
 8000736:	f7ff ff83 	bl	8000640 <write_single_byte>
 800073a:	212a      	movs	r1, #42	; 0x2a
 800073c:	2024      	movs	r0, #36	; 0x24
 800073e:	f7ff ff7f 	bl	8000640 <write_single_byte>
 8000742:	2100      	movs	r1, #0
 8000744:	2025      	movs	r0, #37	; 0x25
 8000746:	f7ff ff7b 	bl	8000640 <write_single_byte>
 800074a:	211f      	movs	r1, #31
 800074c:	2026      	movs	r0, #38	; 0x26
 800074e:	f7ff ff77 	bl	8000640 <write_single_byte>
 8000752:	2181      	movs	r1, #129	; 0x81
 8000754:	202c      	movs	r0, #44	; 0x2c
 8000756:	f7ff ff73 	bl	8000640 <write_single_byte>
 800075a:	2135      	movs	r1, #53	; 0x35
 800075c:	202d      	movs	r0, #45	; 0x2d
 800075e:	f7ff ff6f 	bl	8000640 <write_single_byte>
 8000762:	e8bd 4008 	ldmia.w	sp!, {r3, lr}
 8000766:	2109      	movs	r1, #9
 8000768:	202e      	movs	r0, #46	; 0x2e
 800076a:	f7ff bf69 	b.w	8000640 <write_single_byte>

0800076e <write_rx_cc1101_config>:
 800076e:	b508      	push	{r3, lr}
 8000770:	21c0      	movs	r1, #192	; 0xc0
 8000772:	203e      	movs	r0, #62	; 0x3e
 8000774:	f7ff ff64 	bl	8000640 <write_single_byte>
 8000778:	2108      	movs	r1, #8
 800077a:	2000      	movs	r0, #0
 800077c:	f7ff ff60 	bl	8000640 <write_single_byte>
 8000780:	2106      	movs	r1, #6
 8000782:	2002      	movs	r0, #2
 8000784:	f7ff ff5c 	bl	8000640 <write_single_byte>
 8000788:	2143      	movs	r1, #67	; 0x43
 800078a:	2003      	movs	r0, #3
 800078c:	f7ff ff58 	bl	8000640 <write_single_byte>
 8000790:	21f1      	movs	r1, #241	; 0xf1
 8000792:	2004      	movs	r0, #4
 8000794:	f7ff ff54 	bl	8000640 <write_single_byte>
 8000798:	2177      	movs	r1, #119	; 0x77
 800079a:	2005      	movs	r0, #5
 800079c:	f7ff ff50 	bl	8000640 <write_single_byte>
 80007a0:	2185      	movs	r1, #133	; 0x85
 80007a2:	2007      	movs	r0, #7
 80007a4:	f7ff ff4c 	bl	8000640 <write_single_byte>
 80007a8:	2105      	movs	r1, #5
 80007aa:	2008      	movs	r0, #8
 80007ac:	f7ff ff48 	bl	8000640 <write_single_byte>
 80007b0:	21ca      	movs	r1, #202	; 0xca
 80007b2:	2009      	movs	r0, #9
 80007b4:	f7ff ff44 	bl	8000640 <write_single_byte>
 80007b8:	2108      	movs	r1, #8
 80007ba:	200b      	movs	r0, #11
 80007bc:	f7ff ff40 	bl	8000640 <write_single_byte>
 80007c0:	2110      	movs	r1, #16
 80007c2:	200d      	movs	r0, #13
 80007c4:	f7ff ff3c 	bl	8000640 <write_single_byte>
 80007c8:	21b4      	movs	r1, #180	; 0xb4
 80007ca:	200e      	movs	r0, #14
 80007cc:	f7ff ff38 	bl	8000640 <write_single_byte>
 80007d0:	212e      	movs	r1, #46	; 0x2e
 80007d2:	200f      	movs	r0, #15
 80007d4:	f7ff ff34 	bl	8000640 <write_single_byte>
 80007d8:	21ca      	movs	r1, #202	; 0xca
 80007da:	2010      	movs	r0, #16
 80007dc:	f7ff ff30 	bl	8000640 <write_single_byte>
 80007e0:	2183      	movs	r1, #131	; 0x83
 80007e2:	2011      	movs	r0, #17
 80007e4:	f7ff ff2c 	bl	8000640 <write_single_byte>
 80007e8:	2197      	movs	r1, #151	; 0x97
 80007ea:	2012      	movs	r0, #18
 80007ec:	f7ff ff28 	bl	8000640 <write_single_byte>
 80007f0:	2132      	movs	r1, #50	; 0x32
 80007f2:	2013      	movs	r0, #19
 80007f4:	f7ff ff24 	bl	8000640 <write_single_byte>
 80007f8:	2134      	movs	r1, #52	; 0x34
 80007fa:	2015      	movs	r0, #21
 80007fc:	f7ff ff20 	bl	8000640 <write_single_byte>
 8000800:	2118      	movs	r1, #24
 8000802:	4608      	mov	r0, r1
 8000804:	f7ff ff1c 	bl	8000640 <write_single_byte>
 8000808:	2116      	movs	r1, #22
 800080a:	2019      	movs	r0, #25
 800080c:	f7ff ff18 	bl	8000640 <write_single_byte>
 8000810:	2143      	movs	r1, #67	; 0x43
 8000812:	201b      	movs	r0, #27
 8000814:	f7ff ff14 	bl	8000640 <write_single_byte>
 8000818:	21e9      	movs	r1, #233	; 0xe9
 800081a:	2023      	movs	r0, #35	; 0x23
 800081c:	f7ff ff10 	bl	8000640 <write_single_byte>
 8000820:	212a      	movs	r1, #42	; 0x2a
 8000822:	2024      	movs	r0, #36	; 0x24
 8000824:	f7ff ff0c 	bl	8000640 <write_single_byte>
 8000828:	2100      	movs	r1, #0
 800082a:	2025      	movs	r0, #37	; 0x25
 800082c:	f7ff ff08 	bl	8000640 <write_single_byte>
 8000830:	211f      	movs	r1, #31
 8000832:	2026      	movs	r0, #38	; 0x26
 8000834:	f7ff ff04 	bl	8000640 <write_single_byte>
 8000838:	2181      	movs	r1, #129	; 0x81
 800083a:	202c      	movs	r0, #44	; 0x2c
 800083c:	f7ff ff00 	bl	8000640 <write_single_byte>
 8000840:	2135      	movs	r1, #53	; 0x35
 8000842:	202d      	movs	r0, #45	; 0x2d
 8000844:	f7ff fefc 	bl	8000640 <write_single_byte>
 8000848:	e8bd 4008 	ldmia.w	sp!, {r3, lr}
 800084c:	2109      	movs	r1, #9
 800084e:	202e      	movs	r0, #46	; 0x2e
 8000850:	f7ff bef6 	b.w	8000640 <write_single_byte>

08000854 <cc1101_init>:
 8000854:	b508      	push	{r3, lr}
 8000856:	b148      	cbz	r0, 800086c <cc1101_init+0x18>
 8000858:	f7ff ff22 	bl	80006a0 <write_tx_cc1101_config>
 800085c:	203b      	movs	r0, #59	; 0x3b
 800085e:	f7ff fe67 	bl	8000530 <command_strobe>
 8000862:	e8bd 4008 	ldmia.w	sp!, {r3, lr}
 8000866:	203a      	movs	r0, #58	; 0x3a
 8000868:	f7ff be62 	b.w	8000530 <command_strobe>
 800086c:	f7ff ff7f 	bl	800076e <write_rx_cc1101_config>
 8000870:	e7f4      	b.n	800085c <cc1101_init+0x8>
	...

08000874 <read_burst_byte>:
 8000874:	e92d 41ff 	stmdb	sp!, {r0, r1, r2, r3, r4, r5, r6, r7, r8, lr}
 8000878:	282f      	cmp	r0, #47	; 0x2f
 800087a:	461f      	mov	r7, r3
 800087c:	f04f 0301 	mov.w	r3, #1
 8000880:	460d      	mov	r5, r1
 8000882:	4616      	mov	r6, r2
 8000884:	f88d 300e 	strb.w	r3, [sp, #14]
 8000888:	d903      	bls.n	8000892 <read_burst_byte+0x1e>
 800088a:	f1a0 023e 	sub.w	r2, r0, #62	; 0x3e
 800088e:	429a      	cmp	r2, r3
 8000890:	d83b      	bhi.n	800090a <read_burst_byte+0x96>
 8000892:	f060 003f 	orn	r0, r0, #63	; 0x3f
 8000896:	f88d 000f 	strb.w	r0, [sp, #15]
 800089a:	2000      	movs	r0, #0
 800089c:	f7ff fe3e 	bl	800051c <SPI_CS_WRITE>
 80008a0:	f8df 8070 	ldr.w	r8, [pc, #112]	; 8000914 <read_burst_byte+0xa0>
 80008a4:	2104      	movs	r1, #4
 80008a6:	4640      	mov	r0, r8
 80008a8:	f000 ffb0 	bl	800180c <HAL_GPIO_ReadPin>
 80008ac:	4604      	mov	r4, r0
 80008ae:	2800      	cmp	r0, #0
 80008b0:	d1f8      	bne.n	80008a4 <read_burst_byte+0x30>
 80008b2:	f04f 38ff 	mov.w	r8, #4294967295
 80008b6:	462a      	mov	r2, r5
 80008b8:	2301      	movs	r3, #1
 80008ba:	f10d 010f 	add.w	r1, sp, #15
 80008be:	4814      	ldr	r0, [pc, #80]	; (8000910 <read_burst_byte+0x9c>)
 80008c0:	f8cd 8000 	str.w	r8, [sp]
 80008c4:	f001 fdca 	bl	800245c <HAL_SPI_TransmitReceive>
 80008c8:	2010      	movs	r0, #16
 80008ca:	463d      	mov	r5, r7
 80008cc:	f000 fda6 	bl	800141c <delay_6_25ns>
 80008d0:	2f40      	cmp	r7, #64	; 0x40
 80008d2:	4f0f      	ldr	r7, [pc, #60]	; (8000910 <read_burst_byte+0x9c>)
 80008d4:	bf28      	it	cs
 80008d6:	2540      	movcs	r5, #64	; 0x40
 80008d8:	42a5      	cmp	r5, r4
 80008da:	dc04      	bgt.n	80008e6 <read_burst_byte+0x72>
 80008dc:	f7ff fe16 	bl	800050c <SPI_CS_WRITE.part.0>
 80008e0:	b004      	add	sp, #16
 80008e2:	e8bd 81f0 	ldmia.w	sp!, {r4, r5, r6, r7, r8, pc}
 80008e6:	1932      	adds	r2, r6, r4
 80008e8:	2301      	movs	r3, #1
 80008ea:	f10d 010e 	add.w	r1, sp, #14
 80008ee:	f8cd 8000 	str.w	r8, [sp]
 80008f2:	4638      	mov	r0, r7
 80008f4:	f001 fdb2 	bl	800245c <HAL_SPI_TransmitReceive>
 80008f8:	1e6b      	subs	r3, r5, #1
 80008fa:	42a3      	cmp	r3, r4
 80008fc:	bfcc      	ite	gt
 80008fe:	2010      	movgt	r0, #16
 8000900:	2004      	movle	r0, #4
 8000902:	f000 fd8b 	bl	800141c <delay_6_25ns>
 8000906:	3401      	adds	r4, #1
 8000908:	e7e6      	b.n	80008d8 <read_burst_byte+0x64>
 800090a:	700b      	strb	r3, [r1, #0]
 800090c:	e7e8      	b.n	80008e0 <read_burst_byte+0x6c>
 800090e:	bf00      	nop
 8000910:	200000ac 	.word	0x200000ac
 8000914:	40020800 	.word	0x40020800

08000918 <receive_burst_byte_433>:
 8000918:	b57f      	push	{r0, r1, r2, r3, r4, r5, r6, lr}
 800091a:	4605      	mov	r5, r0
 800091c:	2036      	movs	r0, #54	; 0x36
 800091e:	f7ff fe07 	bl	8000530 <command_strobe>
 8000922:	203a      	movs	r0, #58	; 0x3a
 8000924:	f7ff fe04 	bl	8000530 <command_strobe>
 8000928:	2034      	movs	r0, #52	; 0x34
 800092a:	f7ff fe01 	bl	8000530 <command_strobe>
 800092e:	f44f 707a 	mov.w	r0, #1000	; 0x3e8
 8000932:	f000 fd7d 	bl	8001430 <delay_us>
 8000936:	4e1e      	ldr	r6, [pc, #120]	; (80009b0 <receive_burst_byte_433+0x98>)
 8000938:	f240 34e9 	movw	r4, #1001	; 0x3e9
 800093c:	2180      	movs	r1, #128	; 0x80
 800093e:	4630      	mov	r0, r6
 8000940:	f000 ff64 	bl	800180c <HAL_GPIO_ReadPin>
 8000944:	b118      	cbz	r0, 800094e <receive_burst_byte_433+0x36>
 8000946:	4e1a      	ldr	r6, [pc, #104]	; (80009b0 <receive_burst_byte_433+0x98>)
 8000948:	f240 34e9 	movw	r4, #1001	; 0x3e9
 800094c:	e00c      	b.n	8000968 <receive_burst_byte_433+0x50>
 800094e:	3c01      	subs	r4, #1
 8000950:	d0f9      	beq.n	8000946 <receive_burst_byte_433+0x2e>
 8000952:	f44f 707a 	mov.w	r0, #1000	; 0x3e8
 8000956:	f000 fd6b 	bl	8001430 <delay_us>
 800095a:	e7ef      	b.n	800093c <receive_burst_byte_433+0x24>
 800095c:	3c01      	subs	r4, #1
 800095e:	d009      	beq.n	8000974 <receive_burst_byte_433+0x5c>
 8000960:	f44f 707a 	mov.w	r0, #1000	; 0x3e8
 8000964:	f000 fd64 	bl	8001430 <delay_us>
 8000968:	2180      	movs	r1, #128	; 0x80
 800096a:	4630      	mov	r0, r6
 800096c:	f000 ff4e 	bl	800180c <HAL_GPIO_ReadPin>
 8000970:	2800      	cmp	r0, #0
 8000972:	d1f3      	bne.n	800095c <receive_burst_byte_433+0x44>
 8000974:	f10d 0107 	add.w	r1, sp, #7
 8000978:	203b      	movs	r0, #59	; 0x3b
 800097a:	f7ff fe23 	bl	80005c4 <read_status_reg>
 800097e:	f000 067f 	and.w	r6, r0, #127	; 0x7f
 8000982:	2e05      	cmp	r6, #5
 8000984:	4604      	mov	r4, r0
 8000986:	d10b      	bne.n	80009a0 <receive_burst_byte_433+0x88>
 8000988:	4633      	mov	r3, r6
 800098a:	203f      	movs	r0, #63	; 0x3f
 800098c:	aa02      	add	r2, sp, #8
 800098e:	f10d 0107 	add.w	r1, sp, #7
 8000992:	f7ff ff6f 	bl	8000874 <read_burst_byte>
 8000996:	9802      	ldr	r0, [sp, #8]
 8000998:	f89d 300c 	ldrb.w	r3, [sp, #12]
 800099c:	6028      	str	r0, [r5, #0]
 800099e:	712b      	strb	r3, [r5, #4]
 80009a0:	0623      	lsls	r3, r4, #24
 80009a2:	d502      	bpl.n	80009aa <receive_burst_byte_433+0x92>
 80009a4:	203a      	movs	r0, #58	; 0x3a
 80009a6:	f7ff fdc3 	bl	8000530 <command_strobe>
 80009aa:	4630      	mov	r0, r6
 80009ac:	b004      	add	sp, #16
 80009ae:	bd70      	pop	{r4, r5, r6, pc}
 80009b0:	40020000 	.word	0x40020000

080009b4 <writeExpander>:
 80009b4:	b51f      	push	{r0, r1, r2, r3, r4, lr}
 80009b6:	4b08      	ldr	r3, [pc, #32]	; (80009d8 <writeExpander+0x24>)
 80009b8:	781b      	ldrb	r3, [r3, #0]
 80009ba:	4318      	orrs	r0, r3
 80009bc:	230a      	movs	r3, #10
 80009be:	f88d 000f 	strb.w	r0, [sp, #15]
 80009c2:	9300      	str	r3, [sp, #0]
 80009c4:	f10d 020f 	add.w	r2, sp, #15
 80009c8:	2301      	movs	r3, #1
 80009ca:	214e      	movs	r1, #78	; 0x4e
 80009cc:	4803      	ldr	r0, [pc, #12]	; (80009dc <writeExpander+0x28>)
 80009ce:	f001 f8a3 	bl	8001b18 <HAL_I2C_Master_Transmit>
 80009d2:	b005      	add	sp, #20
 80009d4:	f85d fb04 	ldr.w	pc, [sp], #4
 80009d8:	2000003d 	.word	0x2000003d
 80009dc:	20000058 	.word	0x20000058

080009e0 <write4bits>:
 80009e0:	b510      	push	{r4, lr}
 80009e2:	4604      	mov	r4, r0
 80009e4:	f7ff ffe6 	bl	80009b4 <writeExpander>
 80009e8:	f044 0004 	orr.w	r0, r4, #4
 80009ec:	f7ff ffe2 	bl	80009b4 <writeExpander>
 80009f0:	2014      	movs	r0, #20
 80009f2:	f000 fd1d 	bl	8001430 <delay_us>
 80009f6:	f004 00fb 	and.w	r0, r4, #251	; 0xfb
 80009fa:	f7ff ffdb 	bl	80009b4 <writeExpander>
 80009fe:	e8bd 4010 	ldmia.w	sp!, {r4, lr}
 8000a02:	2014      	movs	r0, #20
 8000a04:	f000 bd14 	b.w	8001430 <delay_us>

08000a08 <send>:
 8000a08:	b538      	push	{r3, r4, r5, lr}
 8000a0a:	4605      	mov	r5, r0
 8000a0c:	f020 000f 	bic.w	r0, r0, #15
 8000a10:	4308      	orrs	r0, r1
 8000a12:	460c      	mov	r4, r1
 8000a14:	f7ff ffe4 	bl	80009e0 <write4bits>
 8000a18:	202d      	movs	r0, #45	; 0x2d
 8000a1a:	f000 fd09 	bl	8001430 <delay_us>
 8000a1e:	ea44 1005 	orr.w	r0, r4, r5, lsl #4
 8000a22:	b2c0      	uxtb	r0, r0
 8000a24:	f7ff ffdc 	bl	80009e0 <write4bits>
 8000a28:	e8bd 4038 	ldmia.w	sp!, {r3, r4, r5, lr}
 8000a2c:	202d      	movs	r0, #45	; 0x2d
 8000a2e:	f000 bcff 	b.w	8001430 <delay_us>

08000a32 <sendCMD>:
 8000a32:	2100      	movs	r1, #0
 8000a34:	f7ff bfe8 	b.w	8000a08 <send>

08000a38 <LCD1602_Clear>:
 8000a38:	b508      	push	{r3, lr}
 8000a3a:	2001      	movs	r0, #1
 8000a3c:	f7ff fff9 	bl	8000a32 <sendCMD>
 8000a40:	e8bd 4008 	ldmia.w	sp!, {r3, lr}
 8000a44:	f44f 60fa 	mov.w	r0, #2000	; 0x7d0
 8000a48:	f000 bcf2 	b.w	8001430 <delay_us>

08000a4c <LCD1602_Home>:
 8000a4c:	b508      	push	{r3, lr}
 8000a4e:	2002      	movs	r0, #2
 8000a50:	f7ff ffef 	bl	8000a32 <sendCMD>
 8000a54:	e8bd 4008 	ldmia.w	sp!, {r3, lr}
 8000a58:	f44f 60fa 	mov.w	r0, #2000	; 0x7d0
 8000a5c:	f000 bce8 	b.w	8001430 <delay_us>

08000a60 <LCD1602_SetCursor>:
 8000a60:	b43f      	push	{r0, r1, r2, r3, r4, r5}
 8000a62:	4b0a      	ldr	r3, [pc, #40]	; (8000a8c <LCD1602_SetCursor+0x2c>)
 8000a64:	4604      	mov	r4, r0
 8000a66:	460d      	mov	r5, r1
 8000a68:	cb0f      	ldmia	r3, {r0, r1, r2, r3}
 8000a6a:	f10d 0c10 	add.w	ip, sp, #16
 8000a6e:	e90c 000f 	stmdb	ip, {r0, r1, r2, r3}
 8000a72:	eb0c 0585 	add.w	r5, ip, r5, lsl #2
 8000a76:	f855 0c10 	ldr.w	r0, [r5, #-16]
 8000a7a:	4420      	add	r0, r4
 8000a7c:	f060 007f 	orn	r0, r0, #127	; 0x7f
 8000a80:	b2c0      	uxtb	r0, r0
 8000a82:	b004      	add	sp, #16
 8000a84:	bc30      	pop	{r4, r5}
 8000a86:	f7ff bfd4 	b.w	8000a32 <sendCMD>
 8000a8a:	bf00      	nop
 8000a8c:	08004eb0 	.word	0x08004eb0

08000a90 <LCD1602_NoDisplay>:
 8000a90:	4b02      	ldr	r3, [pc, #8]	; (8000a9c <LCD1602_NoDisplay+0xc>)
 8000a92:	2200      	movs	r2, #0
 8000a94:	2008      	movs	r0, #8
 8000a96:	701a      	strb	r2, [r3, #0]
 8000a98:	f7ff bfcb 	b.w	8000a32 <sendCMD>
 8000a9c:	2000003e 	.word	0x2000003e

08000aa0 <LCD1602_Display>:
 8000aa0:	4b04      	ldr	r3, [pc, #16]	; (8000ab4 <LCD1602_Display+0x14>)
 8000aa2:	7818      	ldrb	r0, [r3, #0]
 8000aa4:	f040 0204 	orr.w	r2, r0, #4
 8000aa8:	f040 000c 	orr.w	r0, r0, #12
 8000aac:	701a      	strb	r2, [r3, #0]
 8000aae:	f7ff bfc0 	b.w	8000a32 <sendCMD>
 8000ab2:	bf00      	nop
 8000ab4:	2000003e 	.word	0x2000003e

08000ab8 <LCD1602_Cursor>:
 8000ab8:	4b04      	ldr	r3, [pc, #16]	; (8000acc <LCD1602_Cursor+0x14>)
 8000aba:	7818      	ldrb	r0, [r3, #0]
 8000abc:	f040 0202 	orr.w	r2, r0, #2
 8000ac0:	f040 000a 	orr.w	r0, r0, #10
 8000ac4:	701a      	strb	r2, [r3, #0]
 8000ac6:	f7ff bfb4 	b.w	8000a32 <sendCMD>
 8000aca:	bf00      	nop
 8000acc:	2000003e 	.word	0x2000003e

08000ad0 <LCD1602_CreateSpecialChar>:
 8000ad0:	f000 0007 	and.w	r0, r0, #7
 8000ad4:	00c0      	lsls	r0, r0, #3
 8000ad6:	b538      	push	{r3, r4, r5, lr}
 8000ad8:	f040 0040 	orr.w	r0, r0, #64	; 0x40
 8000adc:	460c      	mov	r4, r1
 8000ade:	f7ff ffa8 	bl	8000a32 <sendCMD>
 8000ae2:	1e65      	subs	r5, r4, #1
 8000ae4:	3407      	adds	r4, #7
 8000ae6:	f815 0f01 	ldrb.w	r0, [r5, #1]!
 8000aea:	2101      	movs	r1, #1
 8000aec:	f7ff ff8c 	bl	8000a08 <send>
 8000af0:	42a5      	cmp	r5, r4
 8000af2:	d1f8      	bne.n	8000ae6 <LCD1602_CreateSpecialChar+0x16>
 8000af4:	bd38      	pop	{r3, r4, r5, pc}
	...

08000af8 <LCD1602_Init>:
 8000af8:	b570      	push	{r4, r5, r6, lr}
 8000afa:	4e28      	ldr	r6, [pc, #160]	; (8000b9c <LCD1602_Init+0xa4>)
 8000afc:	4c28      	ldr	r4, [pc, #160]	; (8000ba0 <LCD1602_Init+0xa8>)
 8000afe:	2308      	movs	r3, #8
 8000b00:	2500      	movs	r5, #0
 8000b02:	2032      	movs	r0, #50	; 0x32
 8000b04:	7033      	strb	r3, [r6, #0]
 8000b06:	7025      	strb	r5, [r4, #0]
 8000b08:	f000 fd46 	bl	8001598 <HAL_Delay>
 8000b0c:	f44f 707a 	mov.w	r0, #1000	; 0x3e8
 8000b10:	f000 fd42 	bl	8001598 <HAL_Delay>
 8000b14:	2030      	movs	r0, #48	; 0x30
 8000b16:	f7ff ff63 	bl	80009e0 <write4bits>
 8000b1a:	f241 1094 	movw	r0, #4500	; 0x1194
 8000b1e:	f000 fc87 	bl	8001430 <delay_us>
 8000b22:	2030      	movs	r0, #48	; 0x30
 8000b24:	f7ff ff5c 	bl	80009e0 <write4bits>
 8000b28:	f241 1094 	movw	r0, #4500	; 0x1194
 8000b2c:	f000 fc80 	bl	8001430 <delay_us>
 8000b30:	2030      	movs	r0, #48	; 0x30
 8000b32:	f7ff ff55 	bl	80009e0 <write4bits>
 8000b36:	f241 1094 	movw	r0, #4500	; 0x1194
 8000b3a:	f000 fc79 	bl	8001430 <delay_us>
 8000b3e:	2020      	movs	r0, #32
 8000b40:	f7ff ff4e 	bl	80009e0 <write4bits>
 8000b44:	2064      	movs	r0, #100	; 0x64
 8000b46:	f000 fc73 	bl	8001430 <delay_us>
 8000b4a:	7830      	ldrb	r0, [r6, #0]
 8000b4c:	f040 0020 	orr.w	r0, r0, #32
 8000b50:	f7ff ff6f 	bl	8000a32 <sendCMD>
 8000b54:	4b13      	ldr	r3, [pc, #76]	; (8000ba4 <LCD1602_Init+0xac>)
 8000b56:	2204      	movs	r2, #4
 8000b58:	701a      	strb	r2, [r3, #0]
 8000b5a:	f7ff ffa1 	bl	8000aa0 <LCD1602_Display>
 8000b5e:	f7ff ff6b 	bl	8000a38 <LCD1602_Clear>
 8000b62:	4b11      	ldr	r3, [pc, #68]	; (8000ba8 <LCD1602_Init+0xb0>)
 8000b64:	2202      	movs	r2, #2
 8000b66:	2006      	movs	r0, #6
 8000b68:	701a      	strb	r2, [r3, #0]
 8000b6a:	f7ff ff62 	bl	8000a32 <sendCMD>
 8000b6e:	f241 1094 	movw	r0, #4500	; 0x1194
 8000b72:	f000 fc5d 	bl	8001430 <delay_us>
 8000b76:	4628      	mov	r0, r5
 8000b78:	490c      	ldr	r1, [pc, #48]	; (8000bac <LCD1602_Init+0xb4>)
 8000b7a:	f7ff ffa9 	bl	8000ad0 <LCD1602_CreateSpecialChar>
 8000b7e:	490c      	ldr	r1, [pc, #48]	; (8000bb0 <LCD1602_Init+0xb8>)
 8000b80:	2001      	movs	r0, #1
 8000b82:	f7ff ffa5 	bl	8000ad0 <LCD1602_CreateSpecialChar>
 8000b86:	7820      	ldrb	r0, [r4, #0]
 8000b88:	f7ff ff14 	bl	80009b4 <writeExpander>
 8000b8c:	f44f 707a 	mov.w	r0, #1000	; 0x3e8
 8000b90:	f000 fd02 	bl	8001598 <HAL_Delay>
 8000b94:	e8bd 4070 	ldmia.w	sp!, {r4, r5, r6, lr}
 8000b98:	f7ff bf58 	b.w	8000a4c <LCD1602_Home>
 8000b9c:	2000003c 	.word	0x2000003c
 8000ba0:	2000003d 	.word	0x2000003d
 8000ba4:	2000003e 	.word	0x2000003e
 8000ba8:	2000003f 	.word	0x2000003f
 8000bac:	20000000 	.word	0x20000000
 8000bb0:	20000008 	.word	0x20000008

08000bb4 <LCD1602_Backlight>:
 8000bb4:	4b02      	ldr	r3, [pc, #8]	; (8000bc0 <LCD1602_Backlight+0xc>)
 8000bb6:	2008      	movs	r0, #8
 8000bb8:	7018      	strb	r0, [r3, #0]
 8000bba:	f7ff befb 	b.w	80009b4 <writeExpander>
 8000bbe:	bf00      	nop
 8000bc0:	2000003d 	.word	0x2000003d

08000bc4 <LCD1602_NoBacklight>:
 8000bc4:	4b02      	ldr	r3, [pc, #8]	; (8000bd0 <LCD1602_NoBacklight+0xc>)
 8000bc6:	2000      	movs	r0, #0
 8000bc8:	7018      	strb	r0, [r3, #0]
 8000bca:	f7ff bef3 	b.w	80009b4 <writeExpander>
 8000bce:	bf00      	nop
 8000bd0:	2000003d 	.word	0x2000003d

08000bd4 <LCD1602_PrintStr>:
 8000bd4:	b510      	push	{r4, lr}
 8000bd6:	1e44      	subs	r4, r0, #1
 8000bd8:	f814 0f01 	ldrb.w	r0, [r4, #1]!
 8000bdc:	b108      	cbz	r0, 8000be2 <LCD1602_PrintStr+0xe>
 8000bde:	2830      	cmp	r0, #48	; 0x30
 8000be0:	d100      	bne.n	8000be4 <LCD1602_PrintStr+0x10>
 8000be2:	bd10      	pop	{r4, pc}
 8000be4:	2101      	movs	r1, #1
 8000be6:	f7ff ff0f 	bl	8000a08 <send>
 8000bea:	e7f5      	b.n	8000bd8 <LCD1602_PrintStr+0x4>

08000bec <StartCC1101>:
 8000bec:	b51f      	push	{r0, r1, r2, r3, r4, lr}
 8000bee:	4b1c      	ldr	r3, [pc, #112]	; (8000c60 <StartCC1101+0x74>)
 8000bf0:	4d1c      	ldr	r5, [pc, #112]	; (8000c64 <StartCC1101+0x78>)
 8000bf2:	6818      	ldr	r0, [r3, #0]
 8000bf4:	4e1c      	ldr	r6, [pc, #112]	; (8000c68 <StartCC1101+0x7c>)
 8000bf6:	791b      	ldrb	r3, [r3, #4]
 8000bf8:	9002      	str	r0, [sp, #8]
 8000bfa:	f88d 300c 	strb.w	r3, [sp, #12]
 8000bfe:	f04f 31ff 	mov.w	r1, #4294967295
 8000c02:	6828      	ldr	r0, [r5, #0]
 8000c04:	f002 f8f7 	bl	8002df6 <osMutexAcquire>
 8000c08:	a802      	add	r0, sp, #8
 8000c0a:	f7ff fe85 	bl	8000918 <receive_burst_byte_433>
 8000c0e:	4604      	mov	r4, r0
 8000c10:	b1d8      	cbz	r0, 8000c4a <StartCC1101+0x5e>
 8000c12:	f89d 300a 	ldrb.w	r3, [sp, #10]
 8000c16:	2bff      	cmp	r3, #255	; 0xff
 8000c18:	d110      	bne.n	8000c3c <StartCC1101+0x50>
 8000c1a:	f88d 3007 	strb.w	r3, [sp, #7]
 8000c1e:	2300      	movs	r3, #0
 8000c20:	461a      	mov	r2, r3
 8000c22:	6830      	ldr	r0, [r6, #0]
 8000c24:	f10d 0107 	add.w	r1, sp, #7
 8000c28:	f002 f969 	bl	8002efe <osMessageQueuePut>
 8000c2c:	2300      	movs	r3, #0
 8000c2e:	480f      	ldr	r0, [pc, #60]	; (8000c6c <StartCC1101+0x80>)
 8000c30:	461a      	mov	r2, r3
 8000c32:	6800      	ldr	r0, [r0, #0]
 8000c34:	f10d 0107 	add.w	r1, sp, #7
 8000c38:	f002 f961 	bl	8002efe <osMessageQueuePut>
 8000c3c:	6828      	ldr	r0, [r5, #0]
 8000c3e:	f002 f8fc 	bl	8002e3a <osMutexRelease>
 8000c42:	200a      	movs	r0, #10
 8000c44:	f002 f893 	bl	8002d6e <osDelay>
 8000c48:	e7d9      	b.n	8000bfe <StartCC1101+0x12>
 8000c4a:	4603      	mov	r3, r0
 8000c4c:	f88d 0007 	strb.w	r0, [sp, #7]
 8000c50:	4602      	mov	r2, r0
 8000c52:	f10d 0107 	add.w	r1, sp, #7
 8000c56:	6830      	ldr	r0, [r6, #0]
 8000c58:	f002 f951 	bl	8002efe <osMessageQueuePut>
 8000c5c:	4623      	mov	r3, r4
 8000c5e:	e7e6      	b.n	8000c2e <StartCC1101+0x42>
 8000c60:	08004ec0 	.word	0x08004ec0
 8000c64:	2000004c 	.word	0x2000004c
 8000c68:	20000050 	.word	0x20000050
 8000c6c:	20000054 	.word	0x20000054

08000c70 <StartLCD>:
 8000c70:	b537      	push	{r0, r1, r2, r4, r5, lr}
 8000c72:	4c11      	ldr	r4, [pc, #68]	; (8000cb8 <StartLCD+0x48>)
 8000c74:	4d11      	ldr	r5, [pc, #68]	; (8000cbc <StartLCD+0x4c>)
 8000c76:	6820      	ldr	r0, [r4, #0]
 8000c78:	f04f 31ff 	mov.w	r1, #4294967295
 8000c7c:	f002 f8bb 	bl	8002df6 <osMutexAcquire>
 8000c80:	6828      	ldr	r0, [r5, #0]
 8000c82:	f002 f99b 	bl	8002fbc <osMessageQueueGetCount>
 8000c86:	b178      	cbz	r0, 8000ca8 <StartLCD+0x38>
 8000c88:	2300      	movs	r3, #0
 8000c8a:	6828      	ldr	r0, [r5, #0]
 8000c8c:	461a      	mov	r2, r3
 8000c8e:	f10d 0107 	add.w	r1, sp, #7
 8000c92:	f002 f964 	bl	8002f5e <osMessageQueueGet>
 8000c96:	b938      	cbnz	r0, 8000ca8 <StartLCD+0x38>
 8000c98:	f89d 3007 	ldrb.w	r3, [sp, #7]
 8000c9c:	2bff      	cmp	r3, #255	; 0xff
 8000c9e:	d103      	bne.n	8000ca8 <StartLCD+0x38>
 8000ca0:	f7ff ff88 	bl	8000bb4 <LCD1602_Backlight>
 8000ca4:	f7ff fefc 	bl	8000aa0 <LCD1602_Display>
 8000ca8:	6820      	ldr	r0, [r4, #0]
 8000caa:	f002 f8c6 	bl	8002e3a <osMutexRelease>
 8000cae:	200a      	movs	r0, #10
 8000cb0:	f002 f85d 	bl	8002d6e <osDelay>
 8000cb4:	e7df      	b.n	8000c76 <StartLCD+0x6>
 8000cb6:	bf00      	nop
 8000cb8:	2000004c 	.word	0x2000004c
 8000cbc:	20000050 	.word	0x20000050

08000cc0 <StartBUZZER>:
 8000cc0:	b5f7      	push	{r0, r1, r2, r4, r5, r6, r7, lr}
 8000cc2:	4d1e      	ldr	r5, [pc, #120]	; (8000d3c <StartBUZZER+0x7c>)
 8000cc4:	4e1e      	ldr	r6, [pc, #120]	; (8000d40 <StartBUZZER+0x80>)
 8000cc6:	6828      	ldr	r0, [r5, #0]
 8000cc8:	f04f 31ff 	mov.w	r1, #4294967295
 8000ccc:	f002 f893 	bl	8002df6 <osMutexAcquire>
 8000cd0:	6830      	ldr	r0, [r6, #0]
 8000cd2:	f002 f973 	bl	8002fbc <osMessageQueueGetCount>
 8000cd6:	b1f8      	cbz	r0, 8000d18 <StartBUZZER+0x58>
 8000cd8:	2300      	movs	r3, #0
 8000cda:	6830      	ldr	r0, [r6, #0]
 8000cdc:	461a      	mov	r2, r3
 8000cde:	f10d 0107 	add.w	r1, sp, #7
 8000ce2:	f002 f93c 	bl	8002f5e <osMessageQueueGet>
 8000ce6:	b9b8      	cbnz	r0, 8000d18 <StartBUZZER+0x58>
 8000ce8:	f89d 2007 	ldrb.w	r2, [sp, #7]
 8000cec:	2aff      	cmp	r2, #255	; 0xff
 8000cee:	d11a      	bne.n	8000d26 <StartBUZZER+0x66>
 8000cf0:	4f14      	ldr	r7, [pc, #80]	; (8000d44 <StartBUZZER+0x84>)
 8000cf2:	2408      	movs	r4, #8
 8000cf4:	2201      	movs	r2, #1
 8000cf6:	2120      	movs	r1, #32
 8000cf8:	4638      	mov	r0, r7
 8000cfa:	f000 fd8d 	bl	8001818 <HAL_GPIO_WritePin>
 8000cfe:	207d      	movs	r0, #125	; 0x7d
 8000d00:	f000 fc4a 	bl	8001598 <HAL_Delay>
 8000d04:	2200      	movs	r2, #0
 8000d06:	2120      	movs	r1, #32
 8000d08:	4638      	mov	r0, r7
 8000d0a:	f000 fd85 	bl	8001818 <HAL_GPIO_WritePin>
 8000d0e:	207d      	movs	r0, #125	; 0x7d
 8000d10:	f000 fc42 	bl	8001598 <HAL_Delay>
 8000d14:	3c01      	subs	r4, #1
 8000d16:	d1ed      	bne.n	8000cf4 <StartBUZZER+0x34>
 8000d18:	6828      	ldr	r0, [r5, #0]
 8000d1a:	f002 f88e 	bl	8002e3a <osMutexRelease>
 8000d1e:	200a      	movs	r0, #10
 8000d20:	f002 f825 	bl	8002d6e <osDelay>
 8000d24:	e7cf      	b.n	8000cc6 <StartBUZZER+0x6>
 8000d26:	2a00      	cmp	r2, #0
 8000d28:	d1f6      	bne.n	8000d18 <StartBUZZER+0x58>
 8000d2a:	4806      	ldr	r0, [pc, #24]	; (8000d44 <StartBUZZER+0x84>)
 8000d2c:	2120      	movs	r1, #32
 8000d2e:	f000 fd73 	bl	8001818 <HAL_GPIO_WritePin>
 8000d32:	f7ff ff47 	bl	8000bc4 <LCD1602_NoBacklight>
 8000d36:	f7ff feab 	bl	8000a90 <LCD1602_NoDisplay>
 8000d3a:	e7ed      	b.n	8000d18 <StartBUZZER+0x58>
 8000d3c:	2000004c 	.word	0x2000004c
 8000d40:	20000054 	.word	0x20000054
 8000d44:	40020000 	.word	0x40020000

08000d48 <configureTimerForRunTimeStats>:
 8000d48:	4a07      	ldr	r2, [pc, #28]	; (8000d68 <configureTimerForRunTimeStats+0x20>)
 8000d4a:	f8d2 30fc 	ldr.w	r3, [r2, #252]	; 0xfc
 8000d4e:	f043 7380 	orr.w	r3, r3, #16777216	; 0x1000000
 8000d52:	f8c2 30fc 	str.w	r3, [r2, #252]	; 0xfc
 8000d56:	4b05      	ldr	r3, [pc, #20]	; (8000d6c <configureTimerForRunTimeStats+0x24>)
 8000d58:	681a      	ldr	r2, [r3, #0]
 8000d5a:	f042 0201 	orr.w	r2, r2, #1
 8000d5e:	601a      	str	r2, [r3, #0]
 8000d60:	2200      	movs	r2, #0
 8000d62:	605a      	str	r2, [r3, #4]
 8000d64:	4770      	bx	lr
 8000d66:	bf00      	nop
 8000d68:	e000ed00 	.word	0xe000ed00
 8000d6c:	e0001000 	.word	0xe0001000

08000d70 <getRunTimeCounterValue>:
 8000d70:	4b01      	ldr	r3, [pc, #4]	; (8000d78 <getRunTimeCounterValue+0x8>)
 8000d72:	6858      	ldr	r0, [r3, #4]
 8000d74:	4770      	bx	lr
 8000d76:	bf00      	nop
 8000d78:	e0001000 	.word	0xe0001000

08000d7c <vApplicationStackOverflowHook>:
 8000d7c:	4770      	bx	lr
	...

08000d80 <MX_FREERTOS_Init>:
 8000d80:	b508      	push	{r3, lr}
 8000d82:	4814      	ldr	r0, [pc, #80]	; (8000dd4 <MX_FREERTOS_Init+0x54>)
 8000d84:	f001 ffff 	bl	8002d86 <osMutexNew>
 8000d88:	4b13      	ldr	r3, [pc, #76]	; (8000dd8 <MX_FREERTOS_Init+0x58>)
 8000d8a:	4a14      	ldr	r2, [pc, #80]	; (8000ddc <MX_FREERTOS_Init+0x5c>)
 8000d8c:	6018      	str	r0, [r3, #0]
 8000d8e:	2101      	movs	r1, #1
 8000d90:	4608      	mov	r0, r1
 8000d92:	f002 f879 	bl	8002e88 <osMessageQueueNew>
 8000d96:	4b12      	ldr	r3, [pc, #72]	; (8000de0 <MX_FREERTOS_Init+0x60>)
 8000d98:	4a12      	ldr	r2, [pc, #72]	; (8000de4 <MX_FREERTOS_Init+0x64>)
 8000d9a:	6018      	str	r0, [r3, #0]
 8000d9c:	2101      	movs	r1, #1
 8000d9e:	4608      	mov	r0, r1
 8000da0:	f002 f872 	bl	8002e88 <osMessageQueueNew>
 8000da4:	4b10      	ldr	r3, [pc, #64]	; (8000de8 <MX_FREERTOS_Init+0x68>)
 8000da6:	4a11      	ldr	r2, [pc, #68]	; (8000dec <MX_FREERTOS_Init+0x6c>)
 8000da8:	6018      	str	r0, [r3, #0]
 8000daa:	2100      	movs	r1, #0
 8000dac:	4810      	ldr	r0, [pc, #64]	; (8000df0 <MX_FREERTOS_Init+0x70>)
 8000dae:	f001 ff97 	bl	8002ce0 <osThreadNew>
 8000db2:	4b10      	ldr	r3, [pc, #64]	; (8000df4 <MX_FREERTOS_Init+0x74>)
 8000db4:	4a10      	ldr	r2, [pc, #64]	; (8000df8 <MX_FREERTOS_Init+0x78>)
 8000db6:	6018      	str	r0, [r3, #0]
 8000db8:	2100      	movs	r1, #0
 8000dba:	4810      	ldr	r0, [pc, #64]	; (8000dfc <MX_FREERTOS_Init+0x7c>)
 8000dbc:	f001 ff90 	bl	8002ce0 <osThreadNew>
 8000dc0:	4b0f      	ldr	r3, [pc, #60]	; (8000e00 <MX_FREERTOS_Init+0x80>)
 8000dc2:	4a10      	ldr	r2, [pc, #64]	; (8000e04 <MX_FREERTOS_Init+0x84>)
 8000dc4:	6018      	str	r0, [r3, #0]
 8000dc6:	2100      	movs	r1, #0
 8000dc8:	480f      	ldr	r0, [pc, #60]	; (8000e08 <MX_FREERTOS_Init+0x88>)
 8000dca:	f001 ff89 	bl	8002ce0 <osThreadNew>
 8000dce:	4b0f      	ldr	r3, [pc, #60]	; (8000e0c <MX_FREERTOS_Init+0x8c>)
 8000dd0:	6018      	str	r0, [r3, #0]
 8000dd2:	bd08      	pop	{r3, pc}
 8000dd4:	08004f64 	.word	0x08004f64
 8000dd8:	2000004c 	.word	0x2000004c
 8000ddc:	08004f74 	.word	0x08004f74
 8000de0:	20000050 	.word	0x20000050
 8000de4:	08004f8c 	.word	0x08004f8c
 8000de8:	20000054 	.word	0x20000054
 8000dec:	08004f1c 	.word	0x08004f1c
 8000df0:	08000bed 	.word	0x08000bed
 8000df4:	20000044 	.word	0x20000044
 8000df8:	08004f40 	.word	0x08004f40
 8000dfc:	08000c71 	.word	0x08000c71
 8000e00:	20000048 	.word	0x20000048
 8000e04:	08004ef8 	.word	0x08004ef8
 8000e08:	08000cc1 	.word	0x08000cc1
 8000e0c:	20000040 	.word	0x20000040

08000e10 <MX_GPIO_Init>:
 8000e10:	e92d 41f0 	stmdb	sp!, {r4, r5, r6, r7, r8, lr}
 8000e14:	2214      	movs	r2, #20
 8000e16:	b08a      	sub	sp, #40	; 0x28
 8000e18:	eb0d 0002 	add.w	r0, sp, r2
 8000e1c:	2100      	movs	r1, #0
 8000e1e:	f004 f801 	bl	8004e24 <memset>
 8000e22:	2400      	movs	r4, #0
 8000e24:	4b2e      	ldr	r3, [pc, #184]	; (8000ee0 <MX_GPIO_Init+0xd0>)
 8000e26:	9401      	str	r4, [sp, #4]
 8000e28:	6b1a      	ldr	r2, [r3, #48]	; 0x30
 8000e2a:	4d2e      	ldr	r5, [pc, #184]	; (8000ee4 <MX_GPIO_Init+0xd4>)
 8000e2c:	4e2e      	ldr	r6, [pc, #184]	; (8000ee8 <MX_GPIO_Init+0xd8>)
 8000e2e:	f042 0204 	orr.w	r2, r2, #4
 8000e32:	631a      	str	r2, [r3, #48]	; 0x30
 8000e34:	6b1a      	ldr	r2, [r3, #48]	; 0x30
 8000e36:	f002 0204 	and.w	r2, r2, #4
 8000e3a:	9201      	str	r2, [sp, #4]
 8000e3c:	9a01      	ldr	r2, [sp, #4]
 8000e3e:	9402      	str	r4, [sp, #8]
 8000e40:	6b1a      	ldr	r2, [r3, #48]	; 0x30
 8000e42:	f042 0280 	orr.w	r2, r2, #128	; 0x80
 8000e46:	631a      	str	r2, [r3, #48]	; 0x30
 8000e48:	6b1a      	ldr	r2, [r3, #48]	; 0x30
 8000e4a:	f002 0280 	and.w	r2, r2, #128	; 0x80
 8000e4e:	9202      	str	r2, [sp, #8]
 8000e50:	9a02      	ldr	r2, [sp, #8]
 8000e52:	9403      	str	r4, [sp, #12]
 8000e54:	6b1a      	ldr	r2, [r3, #48]	; 0x30
 8000e56:	f042 0201 	orr.w	r2, r2, #1
 8000e5a:	631a      	str	r2, [r3, #48]	; 0x30
 8000e5c:	6b1a      	ldr	r2, [r3, #48]	; 0x30
 8000e5e:	f002 0201 	and.w	r2, r2, #1
 8000e62:	9203      	str	r2, [sp, #12]
 8000e64:	9a03      	ldr	r2, [sp, #12]
 8000e66:	9404      	str	r4, [sp, #16]
 8000e68:	6b1a      	ldr	r2, [r3, #48]	; 0x30
 8000e6a:	f042 0202 	orr.w	r2, r2, #2
 8000e6e:	631a      	str	r2, [r3, #48]	; 0x30
 8000e70:	6b1b      	ldr	r3, [r3, #48]	; 0x30
 8000e72:	f003 0302 	and.w	r3, r3, #2
 8000e76:	9304      	str	r3, [sp, #16]
 8000e78:	4622      	mov	r2, r4
 8000e7a:	4628      	mov	r0, r5
 8000e7c:	2120      	movs	r1, #32
 8000e7e:	9b04      	ldr	r3, [sp, #16]
 8000e80:	f000 fcca 	bl	8001818 <HAL_GPIO_WritePin>
 8000e84:	4630      	mov	r0, r6
 8000e86:	2201      	movs	r2, #1
 8000e88:	2120      	movs	r1, #32
 8000e8a:	f000 fcc5 	bl	8001818 <HAL_GPIO_WritePin>
 8000e8e:	f44f 5200 	mov.w	r2, #8192	; 0x2000
 8000e92:	f44f 1304 	mov.w	r3, #2162688	; 0x210000
 8000e96:	a905      	add	r1, sp, #20
 8000e98:	4814      	ldr	r0, [pc, #80]	; (8000eec <MX_GPIO_Init+0xdc>)
 8000e9a:	9407      	str	r4, [sp, #28]
 8000e9c:	e9cd 2305 	strd	r2, r3, [sp, #20]
 8000ea0:	f04f 0820 	mov.w	r8, #32
 8000ea4:	f000 fbde 	bl	8001664 <HAL_GPIO_Init>
 8000ea8:	2701      	movs	r7, #1
 8000eaa:	a905      	add	r1, sp, #20
 8000eac:	4628      	mov	r0, r5
 8000eae:	e9cd 8705 	strd	r8, r7, [sp, #20]
 8000eb2:	e9cd 4407 	strd	r4, r4, [sp, #28]
 8000eb6:	f000 fbd5 	bl	8001664 <HAL_GPIO_Init>
 8000eba:	2380      	movs	r3, #128	; 0x80
 8000ebc:	a905      	add	r1, sp, #20
 8000ebe:	4628      	mov	r0, r5
 8000ec0:	e9cd 3405 	strd	r3, r4, [sp, #20]
 8000ec4:	9407      	str	r4, [sp, #28]
 8000ec6:	f000 fbcd 	bl	8001664 <HAL_GPIO_Init>
 8000eca:	a905      	add	r1, sp, #20
 8000ecc:	4630      	mov	r0, r6
 8000ece:	e9cd 8705 	strd	r8, r7, [sp, #20]
 8000ed2:	e9cd 4407 	strd	r4, r4, [sp, #28]
 8000ed6:	f000 fbc5 	bl	8001664 <HAL_GPIO_Init>
 8000eda:	b00a      	add	sp, #40	; 0x28
 8000edc:	e8bd 81f0 	ldmia.w	sp!, {r4, r5, r6, r7, r8, pc}
 8000ee0:	40023800 	.word	0x40023800
 8000ee4:	40020000 	.word	0x40020000
 8000ee8:	40020400 	.word	0x40020400
 8000eec:	40020800 	.word	0x40020800

08000ef0 <MX_I2C2_Init>:
 8000ef0:	b508      	push	{r3, lr}
 8000ef2:	480b      	ldr	r0, [pc, #44]	; (8000f20 <MX_I2C2_Init+0x30>)
 8000ef4:	4a0b      	ldr	r2, [pc, #44]	; (8000f24 <MX_I2C2_Init+0x34>)
 8000ef6:	4b0c      	ldr	r3, [pc, #48]	; (8000f28 <MX_I2C2_Init+0x38>)
 8000ef8:	e9c0 2300 	strd	r2, r3, [r0]
 8000efc:	2300      	movs	r3, #0
 8000efe:	f44f 4280 	mov.w	r2, #16384	; 0x4000
 8000f02:	e9c0 3302 	strd	r3, r3, [r0, #8]
 8000f06:	e9c0 2304 	strd	r2, r3, [r0, #16]
 8000f0a:	e9c0 3306 	strd	r3, r3, [r0, #24]
 8000f0e:	6203      	str	r3, [r0, #32]
 8000f10:	f000 fd5a 	bl	80019c8 <HAL_I2C_Init>
 8000f14:	b118      	cbz	r0, 8000f1e <MX_I2C2_Init+0x2e>
 8000f16:	e8bd 4008 	ldmia.w	sp!, {r3, lr}
 8000f1a:	f000 b8ef 	b.w	80010fc <Error_Handler>
 8000f1e:	bd08      	pop	{r3, pc}
 8000f20:	20000058 	.word	0x20000058
 8000f24:	40005800 	.word	0x40005800
 8000f28:	000186a0 	.word	0x000186a0

08000f2c <HAL_I2C_MspInit>:
 8000f2c:	e92d 43f0 	stmdb	sp!, {r4, r5, r6, r7, r8, r9, lr}
 8000f30:	4604      	mov	r4, r0
 8000f32:	b089      	sub	sp, #36	; 0x24
 8000f34:	2214      	movs	r2, #20
 8000f36:	2100      	movs	r1, #0
 8000f38:	a803      	add	r0, sp, #12
 8000f3a:	f003 ff73 	bl	8004e24 <memset>
 8000f3e:	6822      	ldr	r2, [r4, #0]
 8000f40:	4b20      	ldr	r3, [pc, #128]	; (8000fc4 <HAL_I2C_MspInit+0x98>)
 8000f42:	429a      	cmp	r2, r3
 8000f44:	d13b      	bne.n	8000fbe <HAL_I2C_MspInit+0x92>
 8000f46:	4c20      	ldr	r4, [pc, #128]	; (8000fc8 <HAL_I2C_MspInit+0x9c>)
 8000f48:	4820      	ldr	r0, [pc, #128]	; (8000fcc <HAL_I2C_MspInit+0xa0>)
 8000f4a:	2500      	movs	r5, #0
 8000f4c:	9500      	str	r5, [sp, #0]
 8000f4e:	6b23      	ldr	r3, [r4, #48]	; 0x30
 8000f50:	f043 0302 	orr.w	r3, r3, #2
 8000f54:	6323      	str	r3, [r4, #48]	; 0x30
 8000f56:	6b23      	ldr	r3, [r4, #48]	; 0x30
 8000f58:	f003 0302 	and.w	r3, r3, #2
 8000f5c:	9300      	str	r3, [sp, #0]
 8000f5e:	9b00      	ldr	r3, [sp, #0]
 8000f60:	9501      	str	r5, [sp, #4]
 8000f62:	6b23      	ldr	r3, [r4, #48]	; 0x30
 8000f64:	f043 0304 	orr.w	r3, r3, #4
 8000f68:	6323      	str	r3, [r4, #48]	; 0x30
 8000f6a:	6b23      	ldr	r3, [r4, #48]	; 0x30
 8000f6c:	f003 0304 	and.w	r3, r3, #4
 8000f70:	9301      	str	r3, [sp, #4]
 8000f72:	9b01      	ldr	r3, [sp, #4]
 8000f74:	f04f 0912 	mov.w	r9, #18
 8000f78:	f44f 6380 	mov.w	r3, #1024	; 0x400
 8000f7c:	f04f 0801 	mov.w	r8, #1
 8000f80:	2703      	movs	r7, #3
 8000f82:	2604      	movs	r6, #4
 8000f84:	a903      	add	r1, sp, #12
 8000f86:	e9cd 3903 	strd	r3, r9, [sp, #12]
 8000f8a:	e9cd 8705 	strd	r8, r7, [sp, #20]
 8000f8e:	9607      	str	r6, [sp, #28]
 8000f90:	f000 fb68 	bl	8001664 <HAL_GPIO_Init>
 8000f94:	f44f 5380 	mov.w	r3, #4096	; 0x1000
 8000f98:	480d      	ldr	r0, [pc, #52]	; (8000fd0 <HAL_I2C_MspInit+0xa4>)
 8000f9a:	9607      	str	r6, [sp, #28]
 8000f9c:	a903      	add	r1, sp, #12
 8000f9e:	e9cd 3903 	strd	r3, r9, [sp, #12]
 8000fa2:	e9cd 8705 	strd	r8, r7, [sp, #20]
 8000fa6:	f000 fb5d 	bl	8001664 <HAL_GPIO_Init>
 8000faa:	9502      	str	r5, [sp, #8]
 8000fac:	6c23      	ldr	r3, [r4, #64]	; 0x40
 8000fae:	f443 0380 	orr.w	r3, r3, #4194304	; 0x400000
 8000fb2:	6423      	str	r3, [r4, #64]	; 0x40
 8000fb4:	6c23      	ldr	r3, [r4, #64]	; 0x40
 8000fb6:	f403 0380 	and.w	r3, r3, #4194304	; 0x400000
 8000fba:	9302      	str	r3, [sp, #8]
 8000fbc:	9b02      	ldr	r3, [sp, #8]
 8000fbe:	b009      	add	sp, #36	; 0x24
 8000fc0:	e8bd 83f0 	ldmia.w	sp!, {r4, r5, r6, r7, r8, r9, pc}
 8000fc4:	40005800 	.word	0x40005800
 8000fc8:	40023800 	.word	0x40023800
 8000fcc:	40020400 	.word	0x40020400
 8000fd0:	40020800 	.word	0x40020800

08000fd4 <SystemClock_Config>:
 8000fd4:	b510      	push	{r4, lr}
 8000fd6:	b094      	sub	sp, #80	; 0x50
 8000fd8:	2214      	movs	r2, #20
 8000fda:	2100      	movs	r1, #0
 8000fdc:	a808      	add	r0, sp, #32
 8000fde:	f003 ff21 	bl	8004e24 <memset>
 8000fe2:	2214      	movs	r2, #20
 8000fe4:	2100      	movs	r1, #0
 8000fe6:	a802      	add	r0, sp, #8
 8000fe8:	f003 ff1c 	bl	8004e24 <memset>
 8000fec:	2300      	movs	r3, #0
 8000fee:	4a1f      	ldr	r2, [pc, #124]	; (800106c <SystemClock_Config+0x98>)
 8000ff0:	9300      	str	r3, [sp, #0]
 8000ff2:	6c11      	ldr	r1, [r2, #64]	; 0x40
 8000ff4:	f041 5180 	orr.w	r1, r1, #268435456	; 0x10000000
 8000ff8:	6411      	str	r1, [r2, #64]	; 0x40
 8000ffa:	6c12      	ldr	r2, [r2, #64]	; 0x40
 8000ffc:	f002 5280 	and.w	r2, r2, #268435456	; 0x10000000
 8001000:	9200      	str	r2, [sp, #0]
 8001002:	9a00      	ldr	r2, [sp, #0]
 8001004:	4a1a      	ldr	r2, [pc, #104]	; (8001070 <SystemClock_Config+0x9c>)
 8001006:	9301      	str	r3, [sp, #4]
 8001008:	6811      	ldr	r1, [r2, #0]
 800100a:	f441 4140 	orr.w	r1, r1, #49152	; 0xc000
 800100e:	6011      	str	r1, [r2, #0]
 8001010:	6812      	ldr	r2, [r2, #0]
 8001012:	2402      	movs	r4, #2
 8001014:	f402 4240 	and.w	r2, r2, #49152	; 0xc000
 8001018:	2008      	movs	r0, #8
 800101a:	e9cd 430d 	strd	r4, r3, [sp, #52]	; 0x34
 800101e:	9201      	str	r2, [sp, #4]
 8001020:	23a0      	movs	r3, #160	; 0xa0
 8001022:	e9cd 030f 	strd	r0, r3, [sp, #60]	; 0x3c
 8001026:	9a01      	ldr	r2, [sp, #4]
 8001028:	9407      	str	r4, [sp, #28]
 800102a:	2101      	movs	r1, #1
 800102c:	2210      	movs	r2, #16
 800102e:	a807      	add	r0, sp, #28
 8001030:	e9cd 120a 	strd	r1, r2, [sp, #40]	; 0x28
 8001034:	e9cd 4411 	strd	r4, r4, [sp, #68]	; 0x44
 8001038:	9413      	str	r4, [sp, #76]	; 0x4c
 800103a:	f000 ff65 	bl	8001f08 <HAL_RCC_OscConfig>
 800103e:	b108      	cbz	r0, 8001044 <SystemClock_Config+0x70>
 8001040:	b672      	cpsid	i
 8001042:	e7fe      	b.n	8001042 <SystemClock_Config+0x6e>
 8001044:	230f      	movs	r3, #15
 8001046:	e9cd 3402 	strd	r3, r4, [sp, #8]
 800104a:	9004      	str	r0, [sp, #16]
 800104c:	f44f 52c0 	mov.w	r2, #6144	; 0x1800
 8001050:	f44f 5380 	mov.w	r3, #4096	; 0x1000
 8001054:	2105      	movs	r1, #5
 8001056:	a802      	add	r0, sp, #8
 8001058:	e9cd 2305 	strd	r2, r3, [sp, #20]
 800105c:	f000 fe34 	bl	8001cc8 <HAL_RCC_ClockConfig>
 8001060:	b108      	cbz	r0, 8001066 <SystemClock_Config+0x92>
 8001062:	b672      	cpsid	i
 8001064:	e7fe      	b.n	8001064 <SystemClock_Config+0x90>
 8001066:	b014      	add	sp, #80	; 0x50
 8001068:	bd10      	pop	{r4, pc}
 800106a:	bf00      	nop
 800106c:	40023800 	.word	0x40023800
 8001070:	40007000 	.word	0x40007000

08001074 <main>:
 8001074:	b508      	push	{r3, lr}
 8001076:	f000 fa63 	bl	8001540 <HAL_Init>
 800107a:	f7ff ffab 	bl	8000fd4 <SystemClock_Config>
 800107e:	f7ff fec7 	bl	8000e10 <MX_GPIO_Init>
 8001082:	f000 f83d 	bl	8001100 <MX_SPI2_Init>
 8001086:	f000 f939 	bl	80012fc <MX_TIM1_Init>
 800108a:	f000 f9dd 	bl	8001448 <MX_USART2_UART_Init>
 800108e:	f000 f969 	bl	8001364 <MX_TIM2_Init>
 8001092:	f7ff ff2d 	bl	8000ef0 <MX_I2C2_Init>
 8001096:	4811      	ldr	r0, [pc, #68]	; (80010dc <main+0x68>)
 8001098:	f001 fad0 	bl	800263c <HAL_TIM_Base_Start>
 800109c:	4810      	ldr	r0, [pc, #64]	; (80010e0 <main+0x6c>)
 800109e:	f001 facd 	bl	800263c <HAL_TIM_Base_Start>
 80010a2:	f7ff fa6f 	bl	8000584 <manual_POR>
 80010a6:	2000      	movs	r0, #0
 80010a8:	f7ff fbd4 	bl	8000854 <cc1101_init>
 80010ac:	2002      	movs	r0, #2
 80010ae:	f7ff fd23 	bl	8000af8 <LCD1602_Init>
 80010b2:	f7ff fcc1 	bl	8000a38 <LCD1602_Clear>
 80010b6:	f7ff fceb 	bl	8000a90 <LCD1602_NoDisplay>
 80010ba:	f7ff fcfd 	bl	8000ab8 <LCD1602_Cursor>
 80010be:	2100      	movs	r1, #0
 80010c0:	4608      	mov	r0, r1
 80010c2:	f7ff fccd 	bl	8000a60 <LCD1602_SetCursor>
 80010c6:	4807      	ldr	r0, [pc, #28]	; (80010e4 <main+0x70>)
 80010c8:	f7ff fd84 	bl	8000bd4 <LCD1602_PrintStr>
 80010cc:	f001 fddc 	bl	8002c88 <osKernelInitialize>
 80010d0:	f7ff fe56 	bl	8000d80 <MX_FREERTOS_Init>
 80010d4:	f001 fdea 	bl	8002cac <osKernelStart>
 80010d8:	e7fe      	b.n	80010d8 <main+0x64>
 80010da:	bf00      	nop
 80010dc:	2000014c 	.word	0x2000014c
 80010e0:	20000194 	.word	0x20000194
 80010e4:	08004fa4 	.word	0x08004fa4

080010e8 <HAL_TIM_PeriodElapsedCallback>:
 80010e8:	6802      	ldr	r2, [r0, #0]
 80010ea:	4b03      	ldr	r3, [pc, #12]	; (80010f8 <HAL_TIM_PeriodElapsedCallback+0x10>)
 80010ec:	429a      	cmp	r2, r3
 80010ee:	d101      	bne.n	80010f4 <HAL_TIM_PeriodElapsedCallback+0xc>
 80010f0:	f000 ba40 	b.w	8001574 <HAL_IncTick>
 80010f4:	4770      	bx	lr
 80010f6:	bf00      	nop
 80010f8:	40001000 	.word	0x40001000

080010fc <Error_Handler>:
 80010fc:	b672      	cpsid	i
 80010fe:	e7fe      	b.n	80010fe <Error_Handler+0x2>

08001100 <MX_SPI2_Init>:
 8001100:	480e      	ldr	r0, [pc, #56]	; (800113c <MX_SPI2_Init+0x3c>)
 8001102:	4a0f      	ldr	r2, [pc, #60]	; (8001140 <MX_SPI2_Init+0x40>)
 8001104:	b508      	push	{r3, lr}
 8001106:	f44f 7382 	mov.w	r3, #260	; 0x104
 800110a:	e9c0 2300 	strd	r2, r3, [r0]
 800110e:	2300      	movs	r3, #0
 8001110:	f44f 7200 	mov.w	r2, #512	; 0x200
 8001114:	e9c0 3302 	strd	r3, r3, [r0, #8]
 8001118:	e9c0 3304 	strd	r3, r3, [r0, #16]
 800111c:	e9c0 2306 	strd	r2, r3, [r0, #24]
 8001120:	e9c0 3308 	strd	r3, r3, [r0, #32]
 8001124:	6283      	str	r3, [r0, #40]	; 0x28
 8001126:	230a      	movs	r3, #10
 8001128:	62c3      	str	r3, [r0, #44]	; 0x2c
 800112a:	f001 f93b 	bl	80023a4 <HAL_SPI_Init>
 800112e:	b118      	cbz	r0, 8001138 <MX_SPI2_Init+0x38>
 8001130:	e8bd 4008 	ldmia.w	sp!, {r3, lr}
 8001134:	f7ff bfe2 	b.w	80010fc <Error_Handler>
 8001138:	bd08      	pop	{r3, pc}
 800113a:	bf00      	nop
 800113c:	200000ac 	.word	0x200000ac
 8001140:	40003800 	.word	0x40003800

08001144 <HAL_SPI_MspInit>:
 8001144:	b5f0      	push	{r4, r5, r6, r7, lr}
 8001146:	4604      	mov	r4, r0
 8001148:	b089      	sub	sp, #36	; 0x24
 800114a:	2214      	movs	r2, #20
 800114c:	2100      	movs	r1, #0
 800114e:	a803      	add	r0, sp, #12
 8001150:	f003 fe68 	bl	8004e24 <memset>
 8001154:	6822      	ldr	r2, [r4, #0]
 8001156:	4b23      	ldr	r3, [pc, #140]	; (80011e4 <HAL_SPI_MspInit+0xa0>)
 8001158:	429a      	cmp	r2, r3
 800115a:	d141      	bne.n	80011e0 <HAL_SPI_MspInit+0x9c>
 800115c:	f503 3300 	add.w	r3, r3, #131072	; 0x20000
 8001160:	2400      	movs	r4, #0
 8001162:	9400      	str	r4, [sp, #0]
 8001164:	6c1a      	ldr	r2, [r3, #64]	; 0x40
 8001166:	4820      	ldr	r0, [pc, #128]	; (80011e8 <HAL_SPI_MspInit+0xa4>)
 8001168:	f442 4280 	orr.w	r2, r2, #16384	; 0x4000
 800116c:	641a      	str	r2, [r3, #64]	; 0x40
 800116e:	6c1a      	ldr	r2, [r3, #64]	; 0x40
 8001170:	f402 4280 	and.w	r2, r2, #16384	; 0x4000
 8001174:	9200      	str	r2, [sp, #0]
 8001176:	9a00      	ldr	r2, [sp, #0]
 8001178:	9401      	str	r4, [sp, #4]
 800117a:	6b1a      	ldr	r2, [r3, #48]	; 0x30
 800117c:	f042 0204 	orr.w	r2, r2, #4
 8001180:	631a      	str	r2, [r3, #48]	; 0x30
 8001182:	6b1a      	ldr	r2, [r3, #48]	; 0x30
 8001184:	f002 0204 	and.w	r2, r2, #4
 8001188:	9201      	str	r2, [sp, #4]
 800118a:	9a01      	ldr	r2, [sp, #4]
 800118c:	9402      	str	r4, [sp, #8]
 800118e:	6b1a      	ldr	r2, [r3, #48]	; 0x30
 8001190:	f042 0202 	orr.w	r2, r2, #2
 8001194:	631a      	str	r2, [r3, #48]	; 0x30
 8001196:	6b1b      	ldr	r3, [r3, #48]	; 0x30
 8001198:	f003 0302 	and.w	r3, r3, #2
 800119c:	9302      	str	r3, [sp, #8]
 800119e:	2502      	movs	r5, #2
 80011a0:	2603      	movs	r6, #3
 80011a2:	9b02      	ldr	r3, [sp, #8]
 80011a4:	a903      	add	r1, sp, #12
 80011a6:	2307      	movs	r3, #7
 80011a8:	e9cd 6306 	strd	r6, r3, [sp, #24]
 80011ac:	2705      	movs	r7, #5
 80011ae:	e9cd 5503 	strd	r5, r5, [sp, #12]
 80011b2:	f000 fa57 	bl	8001664 <HAL_GPIO_Init>
 80011b6:	2304      	movs	r3, #4
 80011b8:	480b      	ldr	r0, [pc, #44]	; (80011e8 <HAL_SPI_MspInit+0xa4>)
 80011ba:	9707      	str	r7, [sp, #28]
 80011bc:	a903      	add	r1, sp, #12
 80011be:	e9cd 3503 	strd	r3, r5, [sp, #12]
 80011c2:	e9cd 4605 	strd	r4, r6, [sp, #20]
 80011c6:	f000 fa4d 	bl	8001664 <HAL_GPIO_Init>
 80011ca:	f44f 5300 	mov.w	r3, #8192	; 0x2000
 80011ce:	4807      	ldr	r0, [pc, #28]	; (80011ec <HAL_SPI_MspInit+0xa8>)
 80011d0:	9707      	str	r7, [sp, #28]
 80011d2:	a903      	add	r1, sp, #12
 80011d4:	e9cd 3503 	strd	r3, r5, [sp, #12]
 80011d8:	e9cd 4605 	strd	r4, r6, [sp, #20]
 80011dc:	f000 fa42 	bl	8001664 <HAL_GPIO_Init>
 80011e0:	b009      	add	sp, #36	; 0x24
 80011e2:	bdf0      	pop	{r4, r5, r6, r7, pc}
 80011e4:	40003800 	.word	0x40003800
 80011e8:	40020800 	.word	0x40020800
 80011ec:	40020400 	.word	0x40020400

080011f0 <HAL_MspInit>:
 80011f0:	b082      	sub	sp, #8
 80011f2:	4b0e      	ldr	r3, [pc, #56]	; (800122c <HAL_MspInit+0x3c>)
 80011f4:	2200      	movs	r2, #0
 80011f6:	9200      	str	r2, [sp, #0]
 80011f8:	6c59      	ldr	r1, [r3, #68]	; 0x44
 80011fa:	f441 4180 	orr.w	r1, r1, #16384	; 0x4000
 80011fe:	6459      	str	r1, [r3, #68]	; 0x44
 8001200:	6c59      	ldr	r1, [r3, #68]	; 0x44
 8001202:	f401 4180 	and.w	r1, r1, #16384	; 0x4000
 8001206:	9100      	str	r1, [sp, #0]
 8001208:	9900      	ldr	r1, [sp, #0]
 800120a:	9201      	str	r2, [sp, #4]
 800120c:	6c19      	ldr	r1, [r3, #64]	; 0x40
 800120e:	f041 5180 	orr.w	r1, r1, #268435456	; 0x10000000
 8001212:	6419      	str	r1, [r3, #64]	; 0x40
 8001214:	6c1b      	ldr	r3, [r3, #64]	; 0x40
 8001216:	f003 5380 	and.w	r3, r3, #268435456	; 0x10000000
 800121a:	9301      	str	r3, [sp, #4]
 800121c:	9b01      	ldr	r3, [sp, #4]
 800121e:	210f      	movs	r1, #15
 8001220:	f06f 0001 	mvn.w	r0, #1
 8001224:	b002      	add	sp, #8
 8001226:	f000 b9dd 	b.w	80015e4 <HAL_NVIC_SetPriority>
 800122a:	bf00      	nop
 800122c:	40023800 	.word	0x40023800

08001230 <HAL_InitTick>:
 8001230:	b570      	push	{r4, r5, r6, lr}
 8001232:	b088      	sub	sp, #32
 8001234:	2300      	movs	r3, #0
 8001236:	9302      	str	r3, [sp, #8]
 8001238:	4b20      	ldr	r3, [pc, #128]	; (80012bc <HAL_InitTick+0x8c>)
 800123a:	6c1a      	ldr	r2, [r3, #64]	; 0x40
 800123c:	f042 0210 	orr.w	r2, r2, #16
 8001240:	641a      	str	r2, [r3, #64]	; 0x40
 8001242:	6c1b      	ldr	r3, [r3, #64]	; 0x40
 8001244:	f003 0310 	and.w	r3, r3, #16
 8001248:	9302      	str	r3, [sp, #8]
 800124a:	4605      	mov	r5, r0
 800124c:	a901      	add	r1, sp, #4
 800124e:	a803      	add	r0, sp, #12
 8001250:	9b02      	ldr	r3, [sp, #8]
 8001252:	f000 fdf3 	bl	8001e3c <HAL_RCC_GetClockConfig>
 8001256:	9b06      	ldr	r3, [sp, #24]
 8001258:	bb4b      	cbnz	r3, 80012ae <HAL_InitTick+0x7e>
 800125a:	f000 fdcf 	bl	8001dfc <HAL_RCC_GetPCLK1Freq>
 800125e:	4e18      	ldr	r6, [pc, #96]	; (80012c0 <HAL_InitTick+0x90>)
 8001260:	4b18      	ldr	r3, [pc, #96]	; (80012c4 <HAL_InitTick+0x94>)
 8001262:	6033      	str	r3, [r6, #0]
 8001264:	f240 33e7 	movw	r3, #999	; 0x3e7
 8001268:	60f3      	str	r3, [r6, #12]
 800126a:	4b17      	ldr	r3, [pc, #92]	; (80012c8 <HAL_InitTick+0x98>)
 800126c:	fbb0 f3f3 	udiv	r3, r0, r3
 8001270:	3b01      	subs	r3, #1
 8001272:	6073      	str	r3, [r6, #4]
 8001274:	4630      	mov	r0, r6
 8001276:	2300      	movs	r3, #0
 8001278:	6133      	str	r3, [r6, #16]
 800127a:	60b3      	str	r3, [r6, #8]
 800127c:	61b3      	str	r3, [r6, #24]
 800127e:	f001 fb59 	bl	8002934 <HAL_TIM_Base_Init>
 8001282:	4604      	mov	r4, r0
 8001284:	b980      	cbnz	r0, 80012a8 <HAL_InitTick+0x78>
 8001286:	4630      	mov	r0, r6
 8001288:	f001 fa0e 	bl	80026a8 <HAL_TIM_Base_Start_IT>
 800128c:	4604      	mov	r4, r0
 800128e:	b958      	cbnz	r0, 80012a8 <HAL_InitTick+0x78>
 8001290:	2036      	movs	r0, #54	; 0x36
 8001292:	f000 f9d9 	bl	8001648 <HAL_NVIC_EnableIRQ>
 8001296:	2d0f      	cmp	r5, #15
 8001298:	d80d      	bhi.n	80012b6 <HAL_InitTick+0x86>
 800129a:	4622      	mov	r2, r4
 800129c:	4629      	mov	r1, r5
 800129e:	2036      	movs	r0, #54	; 0x36
 80012a0:	f000 f9a0 	bl	80015e4 <HAL_NVIC_SetPriority>
 80012a4:	4b09      	ldr	r3, [pc, #36]	; (80012cc <HAL_InitTick+0x9c>)
 80012a6:	601d      	str	r5, [r3, #0]
 80012a8:	4620      	mov	r0, r4
 80012aa:	b008      	add	sp, #32
 80012ac:	bd70      	pop	{r4, r5, r6, pc}
 80012ae:	f000 fda5 	bl	8001dfc <HAL_RCC_GetPCLK1Freq>
 80012b2:	0040      	lsls	r0, r0, #1
 80012b4:	e7d3      	b.n	800125e <HAL_InitTick+0x2e>
 80012b6:	2401      	movs	r4, #1
 80012b8:	e7f6      	b.n	80012a8 <HAL_InitTick+0x78>
 80012ba:	bf00      	nop
 80012bc:	40023800 	.word	0x40023800
 80012c0:	20000104 	.word	0x20000104
 80012c4:	40001000 	.word	0x40001000
 80012c8:	000f4240 	.word	0x000f4240
 80012cc:	20000018 	.word	0x20000018

080012d0 <NMI_Handler>:
 80012d0:	e7fe      	b.n	80012d0 <NMI_Handler>

080012d2 <HardFault_Handler>:
 80012d2:	e7fe      	b.n	80012d2 <HardFault_Handler>

080012d4 <MemManage_Handler>:
 80012d4:	e7fe      	b.n	80012d4 <MemManage_Handler>

080012d6 <BusFault_Handler>:
 80012d6:	e7fe      	b.n	80012d6 <BusFault_Handler>

080012d8 <UsageFault_Handler>:
 80012d8:	e7fe      	b.n	80012d8 <UsageFault_Handler>

080012da <DebugMon_Handler>:
 80012da:	4770      	bx	lr

080012dc <TIM6_DAC_IRQHandler>:
 80012dc:	4801      	ldr	r0, [pc, #4]	; (80012e4 <TIM6_DAC_IRQHandler+0x8>)
 80012de:	f001 ba21 	b.w	8002724 <HAL_TIM_IRQHandler>
 80012e2:	bf00      	nop
 80012e4:	20000104 	.word	0x20000104

080012e8 <SystemInit>:
 80012e8:	4a03      	ldr	r2, [pc, #12]	; (80012f8 <SystemInit+0x10>)
 80012ea:	f8d2 3088 	ldr.w	r3, [r2, #136]	; 0x88
 80012ee:	f443 0370 	orr.w	r3, r3, #15728640	; 0xf00000
 80012f2:	f8c2 3088 	str.w	r3, [r2, #136]	; 0x88
 80012f6:	4770      	bx	lr
 80012f8:	e000ed00 	.word	0xe000ed00

080012fc <MX_TIM1_Init>:
 80012fc:	b57f      	push	{r0, r1, r2, r3, r4, r5, r6, lr}
 80012fe:	2210      	movs	r2, #16
 8001300:	2100      	movs	r1, #0
 8001302:	a802      	add	r0, sp, #8
 8001304:	f003 fd8e 	bl	8004e24 <memset>
 8001308:	4814      	ldr	r0, [pc, #80]	; (800135c <MX_TIM1_Init+0x60>)
 800130a:	4a15      	ldr	r2, [pc, #84]	; (8001360 <MX_TIM1_Init+0x64>)
 800130c:	2300      	movs	r3, #0
 800130e:	e9c0 2300 	strd	r2, r3, [r0]
 8001312:	f64f 72ff 	movw	r2, #65535	; 0xffff
 8001316:	e9cd 3300 	strd	r3, r3, [sp]
 800131a:	e9c0 2303 	strd	r2, r3, [r0, #12]
 800131e:	e9c0 3305 	strd	r3, r3, [r0, #20]
 8001322:	6083      	str	r3, [r0, #8]
 8001324:	f001 fb06 	bl	8002934 <HAL_TIM_Base_Init>
 8001328:	b108      	cbz	r0, 800132e <MX_TIM1_Init+0x32>
 800132a:	f7ff fee7 	bl	80010fc <Error_Handler>
 800132e:	f44f 5380 	mov.w	r3, #4096	; 0x1000
 8001332:	480a      	ldr	r0, [pc, #40]	; (800135c <MX_TIM1_Init+0x60>)
 8001334:	9302      	str	r3, [sp, #8]
 8001336:	a902      	add	r1, sp, #8
 8001338:	f001 fb32 	bl	80029a0 <HAL_TIM_ConfigClockSource>
 800133c:	b108      	cbz	r0, 8001342 <MX_TIM1_Init+0x46>
 800133e:	f7ff fedd 	bl	80010fc <Error_Handler>
 8001342:	2300      	movs	r3, #0
 8001344:	4805      	ldr	r0, [pc, #20]	; (800135c <MX_TIM1_Init+0x60>)
 8001346:	4669      	mov	r1, sp
 8001348:	e9cd 3300 	strd	r3, r3, [sp]
 800134c:	f001 fbc2 	bl	8002ad4 <HAL_TIMEx_MasterConfigSynchronization>
 8001350:	b108      	cbz	r0, 8001356 <MX_TIM1_Init+0x5a>
 8001352:	f7ff fed3 	bl	80010fc <Error_Handler>
 8001356:	b007      	add	sp, #28
 8001358:	f85d fb04 	ldr.w	pc, [sp], #4
 800135c:	2000014c 	.word	0x2000014c
 8001360:	40010000 	.word	0x40010000

08001364 <MX_TIM2_Init>:
 8001364:	b57f      	push	{r0, r1, r2, r3, r4, r5, r6, lr}
 8001366:	2210      	movs	r2, #16
 8001368:	2100      	movs	r1, #0
 800136a:	a802      	add	r0, sp, #8
 800136c:	f003 fd5a 	bl	8004e24 <memset>
 8001370:	4815      	ldr	r0, [pc, #84]	; (80013c8 <MX_TIM2_Init+0x64>)
 8001372:	2227      	movs	r2, #39	; 0x27
 8001374:	f04f 4180 	mov.w	r1, #1073741824	; 0x40000000
 8001378:	2300      	movs	r3, #0
 800137a:	e9c0 1200 	strd	r1, r2, [r0]
 800137e:	f04f 32ff 	mov.w	r2, #4294967295
 8001382:	e9cd 3300 	strd	r3, r3, [sp]
 8001386:	e9c0 2303 	strd	r2, r3, [r0, #12]
 800138a:	6083      	str	r3, [r0, #8]
 800138c:	6183      	str	r3, [r0, #24]
 800138e:	f001 fad1 	bl	8002934 <HAL_TIM_Base_Init>
 8001392:	b108      	cbz	r0, 8001398 <MX_TIM2_Init+0x34>
 8001394:	f7ff feb2 	bl	80010fc <Error_Handler>
 8001398:	f44f 5380 	mov.w	r3, #4096	; 0x1000
 800139c:	480a      	ldr	r0, [pc, #40]	; (80013c8 <MX_TIM2_Init+0x64>)
 800139e:	9302      	str	r3, [sp, #8]
 80013a0:	a902      	add	r1, sp, #8
 80013a2:	f001 fafd 	bl	80029a0 <HAL_TIM_ConfigClockSource>
 80013a6:	b108      	cbz	r0, 80013ac <MX_TIM2_Init+0x48>
 80013a8:	f7ff fea8 	bl	80010fc <Error_Handler>
 80013ac:	2300      	movs	r3, #0
 80013ae:	4806      	ldr	r0, [pc, #24]	; (80013c8 <MX_TIM2_Init+0x64>)
 80013b0:	4669      	mov	r1, sp
 80013b2:	e9cd 3300 	strd	r3, r3, [sp]
 80013b6:	f001 fb8d 	bl	8002ad4 <HAL_TIMEx_MasterConfigSynchronization>
 80013ba:	b108      	cbz	r0, 80013c0 <MX_TIM2_Init+0x5c>
 80013bc:	f7ff fe9e 	bl	80010fc <Error_Handler>
 80013c0:	b007      	add	sp, #28
 80013c2:	f85d fb04 	ldr.w	pc, [sp], #4
 80013c6:	bf00      	nop
 80013c8:	20000194 	.word	0x20000194

080013cc <HAL_TIM_Base_MspInit>:
 80013cc:	6803      	ldr	r3, [r0, #0]
 80013ce:	4a11      	ldr	r2, [pc, #68]	; (8001414 <HAL_TIM_Base_MspInit+0x48>)
 80013d0:	4293      	cmp	r3, r2
 80013d2:	b082      	sub	sp, #8
 80013d4:	d10d      	bne.n	80013f2 <HAL_TIM_Base_MspInit+0x26>
 80013d6:	2300      	movs	r3, #0
 80013d8:	9300      	str	r3, [sp, #0]
 80013da:	4b0f      	ldr	r3, [pc, #60]	; (8001418 <HAL_TIM_Base_MspInit+0x4c>)
 80013dc:	6c5a      	ldr	r2, [r3, #68]	; 0x44
 80013de:	f042 0201 	orr.w	r2, r2, #1
 80013e2:	645a      	str	r2, [r3, #68]	; 0x44
 80013e4:	6c5b      	ldr	r3, [r3, #68]	; 0x44
 80013e6:	f003 0301 	and.w	r3, r3, #1
 80013ea:	9300      	str	r3, [sp, #0]
 80013ec:	9b00      	ldr	r3, [sp, #0]
 80013ee:	b002      	add	sp, #8
 80013f0:	4770      	bx	lr
 80013f2:	f1b3 4f80 	cmp.w	r3, #1073741824	; 0x40000000
 80013f6:	d1fa      	bne.n	80013ee <HAL_TIM_Base_MspInit+0x22>
 80013f8:	2300      	movs	r3, #0
 80013fa:	9301      	str	r3, [sp, #4]
 80013fc:	4b06      	ldr	r3, [pc, #24]	; (8001418 <HAL_TIM_Base_MspInit+0x4c>)
 80013fe:	6c1a      	ldr	r2, [r3, #64]	; 0x40
 8001400:	f042 0201 	orr.w	r2, r2, #1
 8001404:	641a      	str	r2, [r3, #64]	; 0x40
 8001406:	6c1b      	ldr	r3, [r3, #64]	; 0x40
 8001408:	f003 0301 	and.w	r3, r3, #1
 800140c:	9301      	str	r3, [sp, #4]
 800140e:	9b01      	ldr	r3, [sp, #4]
 8001410:	e7ed      	b.n	80013ee <HAL_TIM_Base_MspInit+0x22>
 8001412:	bf00      	nop
 8001414:	40010000 	.word	0x40010000
 8001418:	40023800 	.word	0x40023800

0800141c <delay_6_25ns>:
 800141c:	4b03      	ldr	r3, [pc, #12]	; (800142c <delay_6_25ns+0x10>)
 800141e:	681b      	ldr	r3, [r3, #0]
 8001420:	2200      	movs	r2, #0
 8001422:	625a      	str	r2, [r3, #36]	; 0x24
 8001424:	6a5a      	ldr	r2, [r3, #36]	; 0x24
 8001426:	4282      	cmp	r2, r0
 8001428:	d3fc      	bcc.n	8001424 <delay_6_25ns+0x8>
 800142a:	4770      	bx	lr
 800142c:	2000014c 	.word	0x2000014c

08001430 <delay_us>:
 8001430:	4b04      	ldr	r3, [pc, #16]	; (8001444 <delay_us+0x14>)
 8001432:	681b      	ldr	r3, [r3, #0]
 8001434:	2200      	movs	r2, #0
 8001436:	625a      	str	r2, [r3, #36]	; 0x24
 8001438:	6a5a      	ldr	r2, [r3, #36]	; 0x24
 800143a:	4282      	cmp	r2, r0
 800143c:	d300      	bcc.n	8001440 <delay_us+0x10>
 800143e:	4770      	bx	lr
 8001440:	6a5a      	ldr	r2, [r3, #36]	; 0x24
 8001442:	e7f9      	b.n	8001438 <delay_us+0x8>
 8001444:	20000194 	.word	0x20000194

08001448 <MX_USART2_UART_Init>:
 8001448:	480b      	ldr	r0, [pc, #44]	; (8001478 <MX_USART2_UART_Init+0x30>)
 800144a:	4a0c      	ldr	r2, [pc, #48]	; (800147c <MX_USART2_UART_Init+0x34>)
 800144c:	b508      	push	{r3, lr}
 800144e:	f44f 33e1 	mov.w	r3, #115200	; 0x1c200
 8001452:	e9c0 2300 	strd	r2, r3, [r0]
 8001456:	2300      	movs	r3, #0
 8001458:	220c      	movs	r2, #12
 800145a:	e9c0 3302 	strd	r3, r3, [r0, #8]
 800145e:	e9c0 2305 	strd	r2, r3, [r0, #20]
 8001462:	6103      	str	r3, [r0, #16]
 8001464:	61c3      	str	r3, [r0, #28]
 8001466:	f001 fbd3 	bl	8002c10 <HAL_UART_Init>
 800146a:	b118      	cbz	r0, 8001474 <MX_USART2_UART_Init+0x2c>
 800146c:	e8bd 4008 	ldmia.w	sp!, {r3, lr}
 8001470:	f7ff be44 	b.w	80010fc <Error_Handler>
 8001474:	bd08      	pop	{r3, pc}
 8001476:	bf00      	nop
 8001478:	200001dc 	.word	0x200001dc
 800147c:	40004400 	.word	0x40004400

08001480 <HAL_UART_MspInit>:
 8001480:	b510      	push	{r4, lr}
 8001482:	4604      	mov	r4, r0
 8001484:	b088      	sub	sp, #32
 8001486:	2214      	movs	r2, #20
 8001488:	2100      	movs	r1, #0
 800148a:	a803      	add	r0, sp, #12
 800148c:	f003 fcca 	bl	8004e24 <memset>
 8001490:	6822      	ldr	r2, [r4, #0]
 8001492:	4b14      	ldr	r3, [pc, #80]	; (80014e4 <HAL_UART_MspInit+0x64>)
 8001494:	429a      	cmp	r2, r3
 8001496:	d122      	bne.n	80014de <HAL_UART_MspInit+0x5e>
 8001498:	f503 33fa 	add.w	r3, r3, #128000	; 0x1f400
 800149c:	2100      	movs	r1, #0
 800149e:	9101      	str	r1, [sp, #4]
 80014a0:	6c1a      	ldr	r2, [r3, #64]	; 0x40
 80014a2:	4811      	ldr	r0, [pc, #68]	; (80014e8 <HAL_UART_MspInit+0x68>)
 80014a4:	f442 3200 	orr.w	r2, r2, #131072	; 0x20000
 80014a8:	641a      	str	r2, [r3, #64]	; 0x40
 80014aa:	6c1a      	ldr	r2, [r3, #64]	; 0x40
 80014ac:	f402 3200 	and.w	r2, r2, #131072	; 0x20000
 80014b0:	9201      	str	r2, [sp, #4]
 80014b2:	9a01      	ldr	r2, [sp, #4]
 80014b4:	9102      	str	r1, [sp, #8]
 80014b6:	6b1a      	ldr	r2, [r3, #48]	; 0x30
 80014b8:	f042 0201 	orr.w	r2, r2, #1
 80014bc:	631a      	str	r2, [r3, #48]	; 0x30
 80014be:	6b1b      	ldr	r3, [r3, #48]	; 0x30
 80014c0:	f003 0301 	and.w	r3, r3, #1
 80014c4:	9302      	str	r3, [sp, #8]
 80014c6:	9b02      	ldr	r3, [sp, #8]
 80014c8:	220c      	movs	r2, #12
 80014ca:	2302      	movs	r3, #2
 80014cc:	2103      	movs	r1, #3
 80014ce:	e9cd 2303 	strd	r2, r3, [sp, #12]
 80014d2:	2307      	movs	r3, #7
 80014d4:	e9cd 1306 	strd	r1, r3, [sp, #24]
 80014d8:	a903      	add	r1, sp, #12
 80014da:	f000 f8c3 	bl	8001664 <HAL_GPIO_Init>
 80014de:	b008      	add	sp, #32
 80014e0:	bd10      	pop	{r4, pc}
 80014e2:	bf00      	nop
 80014e4:	40004400 	.word	0x40004400
 80014e8:	40020000 	.word	0x40020000

080014ec <Reset_Handler>:
 80014ec:	f8df d034 	ldr.w	sp, [pc, #52]	; 8001524 <LoopFillZerobss+0x12>
 80014f0:	480d      	ldr	r0, [pc, #52]	; (8001528 <LoopFillZerobss+0x16>)
 80014f2:	490e      	ldr	r1, [pc, #56]	; (800152c <LoopFillZerobss+0x1a>)
 80014f4:	4a0e      	ldr	r2, [pc, #56]	; (8001530 <LoopFillZerobss+0x1e>)
 80014f6:	2300      	movs	r3, #0
 80014f8:	e002      	b.n	8001500 <LoopCopyDataInit>

080014fa <CopyDataInit>:
 80014fa:	58d4      	ldr	r4, [r2, r3]
 80014fc:	50c4      	str	r4, [r0, r3]
 80014fe:	3304      	adds	r3, #4

08001500 <LoopCopyDataInit>:
 8001500:	18c4      	adds	r4, r0, r3
 8001502:	428c      	cmp	r4, r1
 8001504:	d3f9      	bcc.n	80014fa <CopyDataInit>
 8001506:	4a0b      	ldr	r2, [pc, #44]	; (8001534 <LoopFillZerobss+0x22>)
 8001508:	4c0b      	ldr	r4, [pc, #44]	; (8001538 <LoopFillZerobss+0x26>)
 800150a:	2300      	movs	r3, #0
 800150c:	e001      	b.n	8001512 <LoopFillZerobss>

0800150e <FillZerobss>:
 800150e:	6013      	str	r3, [r2, #0]
 8001510:	3204      	adds	r2, #4

08001512 <LoopFillZerobss>:
 8001512:	42a2      	cmp	r2, r4
 8001514:	d3fb      	bcc.n	800150e <FillZerobss>
 8001516:	f7ff fee7 	bl	80012e8 <SystemInit>
 800151a:	f003 fc8b 	bl	8004e34 <__libc_init_array>
 800151e:	f7ff fda9 	bl	8001074 <main>
 8001522:	4770      	bx	lr
 8001524:	20020000 	.word	0x20020000
 8001528:	20000000 	.word	0x20000000
 800152c:	20000020 	.word	0x20000020
 8001530:	08004ff0 	.word	0x08004ff0
 8001534:	20000020 	.word	0x20000020
 8001538:	20004b84 	.word	0x20004b84

0800153c <ADC_IRQHandler>:
 800153c:	e7fe      	b.n	800153c <ADC_IRQHandler>
	...

08001540 <HAL_Init>:
 8001540:	b508      	push	{r3, lr}
 8001542:	4b0b      	ldr	r3, [pc, #44]	; (8001570 <HAL_Init+0x30>)
 8001544:	681a      	ldr	r2, [r3, #0]
 8001546:	f442 7200 	orr.w	r2, r2, #512	; 0x200
 800154a:	601a      	str	r2, [r3, #0]
 800154c:	681a      	ldr	r2, [r3, #0]
 800154e:	f442 6280 	orr.w	r2, r2, #1024	; 0x400
 8001552:	601a      	str	r2, [r3, #0]
 8001554:	681a      	ldr	r2, [r3, #0]
 8001556:	f442 7280 	orr.w	r2, r2, #256	; 0x100
 800155a:	601a      	str	r2, [r3, #0]
 800155c:	2003      	movs	r0, #3
 800155e:	f000 f82f 	bl	80015c0 <HAL_NVIC_SetPriorityGrouping>
 8001562:	200f      	movs	r0, #15
 8001564:	f7ff fe64 	bl	8001230 <HAL_InitTick>
 8001568:	f7ff fe42 	bl	80011f0 <HAL_MspInit>
 800156c:	2000      	movs	r0, #0
 800156e:	bd08      	pop	{r3, pc}
 8001570:	40023c00 	.word	0x40023c00

08001574 <HAL_IncTick>:
 8001574:	4a03      	ldr	r2, [pc, #12]	; (8001584 <HAL_IncTick+0x10>)
 8001576:	4b04      	ldr	r3, [pc, #16]	; (8001588 <HAL_IncTick+0x14>)
 8001578:	6811      	ldr	r1, [r2, #0]
 800157a:	781b      	ldrb	r3, [r3, #0]
 800157c:	440b      	add	r3, r1
 800157e:	6013      	str	r3, [r2, #0]
 8001580:	4770      	bx	lr
 8001582:	bf00      	nop
 8001584:	20000220 	.word	0x20000220
 8001588:	20000014 	.word	0x20000014

0800158c <HAL_GetTick>:
 800158c:	4b01      	ldr	r3, [pc, #4]	; (8001594 <HAL_GetTick+0x8>)
 800158e:	6818      	ldr	r0, [r3, #0]
 8001590:	4770      	bx	lr
 8001592:	bf00      	nop
 8001594:	20000220 	.word	0x20000220

08001598 <HAL_Delay>:
 8001598:	b538      	push	{r3, r4, r5, lr}
 800159a:	4604      	mov	r4, r0
 800159c:	f7ff fff6 	bl	800158c <HAL_GetTick>
 80015a0:	1c63      	adds	r3, r4, #1
 80015a2:	bf1c      	itt	ne
 80015a4:	4b05      	ldrne	r3, [pc, #20]	; (80015bc <HAL_Delay+0x24>)
 80015a6:	781b      	ldrbne	r3, [r3, #0]
 80015a8:	4605      	mov	r5, r0
 80015aa:	bf18      	it	ne
 80015ac:	18e4      	addne	r4, r4, r3
 80015ae:	f7ff ffed 	bl	800158c <HAL_GetTick>
 80015b2:	1b43      	subs	r3, r0, r5
 80015b4:	42a3      	cmp	r3, r4
 80015b6:	d3fa      	bcc.n	80015ae <HAL_Delay+0x16>
 80015b8:	bd38      	pop	{r3, r4, r5, pc}
 80015ba:	bf00      	nop
 80015bc:	20000014 	.word	0x20000014

080015c0 <HAL_NVIC_SetPriorityGrouping>:
 80015c0:	4907      	ldr	r1, [pc, #28]	; (80015e0 <HAL_NVIC_SetPriorityGrouping+0x20>)
 80015c2:	68ca      	ldr	r2, [r1, #12]
 80015c4:	f422 62e0 	bic.w	r2, r2, #1792	; 0x700
 80015c8:	0203      	lsls	r3, r0, #8
 80015ca:	0412      	lsls	r2, r2, #16
 80015cc:	f403 63e0 	and.w	r3, r3, #1792	; 0x700
 80015d0:	0c12      	lsrs	r2, r2, #16
 80015d2:	4313      	orrs	r3, r2
 80015d4:	f043 63bf 	orr.w	r3, r3, #100139008	; 0x5f80000
 80015d8:	f443 3300 	orr.w	r3, r3, #131072	; 0x20000
 80015dc:	60cb      	str	r3, [r1, #12]
 80015de:	4770      	bx	lr
 80015e0:	e000ed00 	.word	0xe000ed00

080015e4 <HAL_NVIC_SetPriority>:
 80015e4:	4b16      	ldr	r3, [pc, #88]	; (8001640 <HAL_NVIC_SetPriority+0x5c>)
 80015e6:	b530      	push	{r4, r5, lr}
 80015e8:	68dc      	ldr	r4, [r3, #12]
 80015ea:	f3c4 2402 	ubfx	r4, r4, #8, #3
 80015ee:	f1c4 0307 	rsb	r3, r4, #7
 80015f2:	1d25      	adds	r5, r4, #4
 80015f4:	2b04      	cmp	r3, #4
 80015f6:	bf28      	it	cs
 80015f8:	2304      	movcs	r3, #4
 80015fa:	2d06      	cmp	r5, #6
 80015fc:	f04f 35ff 	mov.w	r5, #4294967295
 8001600:	bf8c      	ite	hi
 8001602:	3c03      	subhi	r4, #3
 8001604:	2400      	movls	r4, #0
 8001606:	fa05 f303 	lsl.w	r3, r5, r3
 800160a:	ea21 0303 	bic.w	r3, r1, r3
 800160e:	40a5      	lsls	r5, r4
 8001610:	ea22 0205 	bic.w	r2, r2, r5
 8001614:	40a3      	lsls	r3, r4
 8001616:	2800      	cmp	r0, #0
 8001618:	ea43 0302 	orr.w	r3, r3, r2
 800161c:	bfac      	ite	ge
 800161e:	f100 4060 	addge.w	r0, r0, #3758096384	; 0xe0000000
 8001622:	4a08      	ldrlt	r2, [pc, #32]	; (8001644 <HAL_NVIC_SetPriority+0x60>)
 8001624:	ea4f 1303 	mov.w	r3, r3, lsl #4
 8001628:	bfb8      	it	lt
 800162a:	f000 000f 	andlt.w	r0, r0, #15
 800162e:	b2db      	uxtb	r3, r3
 8001630:	bfaa      	itet	ge
 8001632:	f500 4061 	addge.w	r0, r0, #57600	; 0xe100
 8001636:	5413      	strblt	r3, [r2, r0]
 8001638:	f880 3300 	strbge.w	r3, [r0, #768]	; 0x300
 800163c:	bd30      	pop	{r4, r5, pc}
 800163e:	bf00      	nop
 8001640:	e000ed00 	.word	0xe000ed00
 8001644:	e000ed14 	.word	0xe000ed14

08001648 <HAL_NVIC_EnableIRQ>:
 8001648:	2800      	cmp	r0, #0
 800164a:	db07      	blt.n	800165c <HAL_NVIC_EnableIRQ+0x14>
 800164c:	0941      	lsrs	r1, r0, #5
 800164e:	4a04      	ldr	r2, [pc, #16]	; (8001660 <HAL_NVIC_EnableIRQ+0x18>)
 8001650:	f000 001f 	and.w	r0, r0, #31
 8001654:	2301      	movs	r3, #1
 8001656:	4083      	lsls	r3, r0
 8001658:	f842 3021 	str.w	r3, [r2, r1, lsl #2]
 800165c:	4770      	bx	lr
 800165e:	bf00      	nop
 8001660:	e000e100 	.word	0xe000e100

08001664 <HAL_GPIO_Init>:
 8001664:	e92d 4ff7 	stmdb	sp!, {r0, r1, r2, r4, r5, r6, r7, r8, r9, sl, fp, lr}
 8001668:	f8df 919c 	ldr.w	r9, [pc, #412]	; 8001808 <HAL_GPIO_Init+0x1a4>
 800166c:	4a64      	ldr	r2, [pc, #400]	; (8001800 <HAL_GPIO_Init+0x19c>)
 800166e:	2300      	movs	r3, #0
 8001670:	680d      	ldr	r5, [r1, #0]
 8001672:	2401      	movs	r4, #1
 8001674:	409c      	lsls	r4, r3
 8001676:	ea04 0c05 	and.w	ip, r4, r5
 800167a:	43ac      	bics	r4, r5
 800167c:	f040 80ad 	bne.w	80017da <HAL_GPIO_Init+0x176>
 8001680:	684d      	ldr	r5, [r1, #4]
 8001682:	f005 0403 	and.w	r4, r5, #3
 8001686:	ea4f 0843 	mov.w	r8, r3, lsl #1
 800168a:	2603      	movs	r6, #3
 800168c:	1e67      	subs	r7, r4, #1
 800168e:	fa06 f608 	lsl.w	r6, r6, r8
 8001692:	2f01      	cmp	r7, #1
 8001694:	ea6f 0606 	mvn.w	r6, r6
 8001698:	d834      	bhi.n	8001704 <HAL_GPIO_Init+0xa0>
 800169a:	6887      	ldr	r7, [r0, #8]
 800169c:	ea07 0e06 	and.w	lr, r7, r6
 80016a0:	68cf      	ldr	r7, [r1, #12]
 80016a2:	fa07 f708 	lsl.w	r7, r7, r8
 80016a6:	ea47 070e 	orr.w	r7, r7, lr
 80016aa:	6087      	str	r7, [r0, #8]
 80016ac:	6847      	ldr	r7, [r0, #4]
 80016ae:	ea27 0e0c 	bic.w	lr, r7, ip
 80016b2:	f3c5 1700 	ubfx	r7, r5, #4, #1
 80016b6:	409f      	lsls	r7, r3
 80016b8:	ea47 070e 	orr.w	r7, r7, lr
 80016bc:	6047      	str	r7, [r0, #4]
 80016be:	68c7      	ldr	r7, [r0, #12]
 80016c0:	ea07 0e06 	and.w	lr, r7, r6
 80016c4:	688f      	ldr	r7, [r1, #8]
 80016c6:	fa07 f708 	lsl.w	r7, r7, r8
 80016ca:	ea47 070e 	orr.w	r7, r7, lr
 80016ce:	2c02      	cmp	r4, #2
 80016d0:	60c7      	str	r7, [r0, #12]
 80016d2:	d119      	bne.n	8001708 <HAL_GPIO_Init+0xa4>
 80016d4:	ea4f 0ad3 	mov.w	sl, r3, lsr #3
 80016d8:	eb00 0a8a 	add.w	sl, r0, sl, lsl #2
 80016dc:	f003 0b07 	and.w	fp, r3, #7
 80016e0:	f8da 7020 	ldr.w	r7, [sl, #32]
 80016e4:	ea4f 0b8b 	mov.w	fp, fp, lsl #2
 80016e8:	f04f 0e0f 	mov.w	lr, #15
 80016ec:	fa0e fe0b 	lsl.w	lr, lr, fp
 80016f0:	ea27 0e0e 	bic.w	lr, r7, lr
 80016f4:	690f      	ldr	r7, [r1, #16]
 80016f6:	fa07 f70b 	lsl.w	r7, r7, fp
 80016fa:	ea47 070e 	orr.w	r7, r7, lr
 80016fe:	f8ca 7020 	str.w	r7, [sl, #32]
 8001702:	e001      	b.n	8001708 <HAL_GPIO_Init+0xa4>
 8001704:	2c03      	cmp	r4, #3
 8001706:	d1da      	bne.n	80016be <HAL_GPIO_Init+0x5a>
 8001708:	6807      	ldr	r7, [r0, #0]
 800170a:	fa04 f408 	lsl.w	r4, r4, r8
 800170e:	4037      	ands	r7, r6
 8001710:	433c      	orrs	r4, r7
 8001712:	f415 3f40 	tst.w	r5, #196608	; 0x30000
 8001716:	6004      	str	r4, [r0, #0]
 8001718:	d05f      	beq.n	80017da <HAL_GPIO_Init+0x176>
 800171a:	f04f 0a00 	mov.w	sl, #0
 800171e:	f8cd a004 	str.w	sl, [sp, #4]
 8001722:	f8d9 6044 	ldr.w	r6, [r9, #68]	; 0x44
 8001726:	4c37      	ldr	r4, [pc, #220]	; (8001804 <HAL_GPIO_Init+0x1a0>)
 8001728:	f446 4680 	orr.w	r6, r6, #16384	; 0x4000
 800172c:	f8c9 6044 	str.w	r6, [r9, #68]	; 0x44
 8001730:	f8d9 6044 	ldr.w	r6, [r9, #68]	; 0x44
 8001734:	f406 4680 	and.w	r6, r6, #16384	; 0x4000
 8001738:	9601      	str	r6, [sp, #4]
 800173a:	9e01      	ldr	r6, [sp, #4]
 800173c:	f023 0603 	bic.w	r6, r3, #3
 8001740:	f106 4680 	add.w	r6, r6, #1073741824	; 0x40000000
 8001744:	f506 369c 	add.w	r6, r6, #79872	; 0x13800
 8001748:	f003 0e03 	and.w	lr, r3, #3
 800174c:	f8d6 8008 	ldr.w	r8, [r6, #8]
 8001750:	ea4f 0e8e 	mov.w	lr, lr, lsl #2
 8001754:	270f      	movs	r7, #15
 8001756:	fa07 f70e 	lsl.w	r7, r7, lr
 800175a:	42a0      	cmp	r0, r4
 800175c:	ea28 0707 	bic.w	r7, r8, r7
 8001760:	d042      	beq.n	80017e8 <HAL_GPIO_Init+0x184>
 8001762:	f504 6480 	add.w	r4, r4, #1024	; 0x400
 8001766:	42a0      	cmp	r0, r4
 8001768:	d040      	beq.n	80017ec <HAL_GPIO_Init+0x188>
 800176a:	f504 6480 	add.w	r4, r4, #1024	; 0x400
 800176e:	42a0      	cmp	r0, r4
 8001770:	d03e      	beq.n	80017f0 <HAL_GPIO_Init+0x18c>
 8001772:	f504 6480 	add.w	r4, r4, #1024	; 0x400
 8001776:	42a0      	cmp	r0, r4
 8001778:	d03c      	beq.n	80017f4 <HAL_GPIO_Init+0x190>
 800177a:	f504 6480 	add.w	r4, r4, #1024	; 0x400
 800177e:	42a0      	cmp	r0, r4
 8001780:	d03a      	beq.n	80017f8 <HAL_GPIO_Init+0x194>
 8001782:	f504 6480 	add.w	r4, r4, #1024	; 0x400
 8001786:	42a0      	cmp	r0, r4
 8001788:	d038      	beq.n	80017fc <HAL_GPIO_Init+0x198>
 800178a:	f504 6480 	add.w	r4, r4, #1024	; 0x400
 800178e:	42a0      	cmp	r0, r4
 8001790:	bf0c      	ite	eq
 8001792:	2406      	moveq	r4, #6
 8001794:	2407      	movne	r4, #7
 8001796:	fa04 f40e 	lsl.w	r4, r4, lr
 800179a:	433c      	orrs	r4, r7
 800179c:	60b4      	str	r4, [r6, #8]
 800179e:	6894      	ldr	r4, [r2, #8]
 80017a0:	ea6f 060c 	mvn.w	r6, ip
 80017a4:	02ef      	lsls	r7, r5, #11
 80017a6:	bf54      	ite	pl
 80017a8:	4034      	andpl	r4, r6
 80017aa:	ea4c 0404 	orrmi.w	r4, ip, r4
 80017ae:	6094      	str	r4, [r2, #8]
 80017b0:	68d4      	ldr	r4, [r2, #12]
 80017b2:	02af      	lsls	r7, r5, #10
 80017b4:	bf54      	ite	pl
 80017b6:	4034      	andpl	r4, r6
 80017b8:	ea4c 0404 	orrmi.w	r4, ip, r4
 80017bc:	60d4      	str	r4, [r2, #12]
 80017be:	6854      	ldr	r4, [r2, #4]
 80017c0:	03af      	lsls	r7, r5, #14
 80017c2:	bf54      	ite	pl
 80017c4:	4034      	andpl	r4, r6
 80017c6:	ea4c 0404 	orrmi.w	r4, ip, r4
 80017ca:	6054      	str	r4, [r2, #4]
 80017cc:	6814      	ldr	r4, [r2, #0]
 80017ce:	03ed      	lsls	r5, r5, #15
 80017d0:	bf54      	ite	pl
 80017d2:	4034      	andpl	r4, r6
 80017d4:	ea4c 0404 	orrmi.w	r4, ip, r4
 80017d8:	6014      	str	r4, [r2, #0]
 80017da:	3301      	adds	r3, #1
 80017dc:	2b10      	cmp	r3, #16
 80017de:	f47f af47 	bne.w	8001670 <HAL_GPIO_Init+0xc>
 80017e2:	b003      	add	sp, #12
 80017e4:	e8bd 8ff0 	ldmia.w	sp!, {r4, r5, r6, r7, r8, r9, sl, fp, pc}
 80017e8:	4654      	mov	r4, sl
 80017ea:	e7d4      	b.n	8001796 <HAL_GPIO_Init+0x132>
 80017ec:	2401      	movs	r4, #1
 80017ee:	e7d2      	b.n	8001796 <HAL_GPIO_Init+0x132>
 80017f0:	2402      	movs	r4, #2
 80017f2:	e7d0      	b.n	8001796 <HAL_GPIO_Init+0x132>
 80017f4:	2403      	movs	r4, #3
 80017f6:	e7ce      	b.n	8001796 <HAL_GPIO_Init+0x132>
 80017f8:	2404      	movs	r4, #4
 80017fa:	e7cc      	b.n	8001796 <HAL_GPIO_Init+0x132>
 80017fc:	2405      	movs	r4, #5
 80017fe:	e7ca      	b.n	8001796 <HAL_GPIO_Init+0x132>
 8001800:	40013c00 	.word	0x40013c00
 8001804:	40020000 	.word	0x40020000
 8001808:	40023800 	.word	0x40023800

0800180c <HAL_GPIO_ReadPin>:
 800180c:	6903      	ldr	r3, [r0, #16]
 800180e:	4219      	tst	r1, r3
 8001810:	bf14      	ite	ne
 8001812:	2001      	movne	r0, #1
 8001814:	2000      	moveq	r0, #0
 8001816:	4770      	bx	lr

08001818 <HAL_GPIO_WritePin>:
 8001818:	b10a      	cbz	r2, 800181e <HAL_GPIO_WritePin+0x6>
 800181a:	6181      	str	r1, [r0, #24]
 800181c:	4770      	bx	lr
 800181e:	0409      	lsls	r1, r1, #16
 8001820:	e7fb      	b.n	800181a <HAL_GPIO_WritePin+0x2>

08001822 <I2C_IsAcknowledgeFailed>:
 8001822:	6801      	ldr	r1, [r0, #0]
 8001824:	694b      	ldr	r3, [r1, #20]
 8001826:	f413 6380 	ands.w	r3, r3, #1024	; 0x400
 800182a:	f04f 0200 	mov.w	r2, #0
 800182e:	d010      	beq.n	8001852 <I2C_IsAcknowledgeFailed+0x30>
 8001830:	f46f 6380 	mvn.w	r3, #1024	; 0x400
 8001834:	614b      	str	r3, [r1, #20]
 8001836:	2320      	movs	r3, #32
 8001838:	6302      	str	r2, [r0, #48]	; 0x30
 800183a:	f880 303d 	strb.w	r3, [r0, #61]	; 0x3d
 800183e:	f880 203e 	strb.w	r2, [r0, #62]	; 0x3e
 8001842:	6c03      	ldr	r3, [r0, #64]	; 0x40
 8001844:	f880 203c 	strb.w	r2, [r0, #60]	; 0x3c
 8001848:	f043 0304 	orr.w	r3, r3, #4
 800184c:	6403      	str	r3, [r0, #64]	; 0x40
 800184e:	2001      	movs	r0, #1
 8001850:	4770      	bx	lr
 8001852:	4618      	mov	r0, r3
 8001854:	4770      	bx	lr

08001856 <I2C_WaitOnFlagUntilTimeout>:
 8001856:	e92d 46f8 	stmdb	sp!, {r3, r4, r5, r6, r7, r9, sl, lr}
 800185a:	4606      	mov	r6, r0
 800185c:	460f      	mov	r7, r1
 800185e:	4691      	mov	r9, r2
 8001860:	461d      	mov	r5, r3
 8001862:	ea4f 4a11 	mov.w	sl, r1, lsr #16
 8001866:	6833      	ldr	r3, [r6, #0]
 8001868:	f1ba 0f01 	cmp.w	sl, #1
 800186c:	bf0c      	ite	eq
 800186e:	695c      	ldreq	r4, [r3, #20]
 8001870:	699c      	ldrne	r4, [r3, #24]
 8001872:	ea27 0404 	bic.w	r4, r7, r4
 8001876:	b2a4      	uxth	r4, r4
 8001878:	fab4 f484 	clz	r4, r4
 800187c:	0964      	lsrs	r4, r4, #5
 800187e:	45a1      	cmp	r9, r4
 8001880:	d001      	beq.n	8001886 <I2C_WaitOnFlagUntilTimeout+0x30>
 8001882:	2000      	movs	r0, #0
 8001884:	e017      	b.n	80018b6 <I2C_WaitOnFlagUntilTimeout+0x60>
 8001886:	1c6a      	adds	r2, r5, #1
 8001888:	d0ee      	beq.n	8001868 <I2C_WaitOnFlagUntilTimeout+0x12>
 800188a:	f7ff fe7f 	bl	800158c <HAL_GetTick>
 800188e:	9b08      	ldr	r3, [sp, #32]
 8001890:	1ac0      	subs	r0, r0, r3
 8001892:	42a8      	cmp	r0, r5
 8001894:	d801      	bhi.n	800189a <I2C_WaitOnFlagUntilTimeout+0x44>
 8001896:	2d00      	cmp	r5, #0
 8001898:	d1e5      	bne.n	8001866 <I2C_WaitOnFlagUntilTimeout+0x10>
 800189a:	2300      	movs	r3, #0
 800189c:	2220      	movs	r2, #32
 800189e:	6333      	str	r3, [r6, #48]	; 0x30
 80018a0:	f886 203d 	strb.w	r2, [r6, #61]	; 0x3d
 80018a4:	f886 303e 	strb.w	r3, [r6, #62]	; 0x3e
 80018a8:	6c32      	ldr	r2, [r6, #64]	; 0x40
 80018aa:	f886 303c 	strb.w	r3, [r6, #60]	; 0x3c
 80018ae:	f042 0220 	orr.w	r2, r2, #32
 80018b2:	6432      	str	r2, [r6, #64]	; 0x40
 80018b4:	2001      	movs	r0, #1
 80018b6:	e8bd 86f8 	ldmia.w	sp!, {r3, r4, r5, r6, r7, r9, sl, pc}

080018ba <I2C_WaitOnMasterAddressFlagUntilTimeout>:
 80018ba:	e92d 41f0 	stmdb	sp!, {r4, r5, r6, r7, r8, lr}
 80018be:	4604      	mov	r4, r0
 80018c0:	460f      	mov	r7, r1
 80018c2:	4616      	mov	r6, r2
 80018c4:	4698      	mov	r8, r3
 80018c6:	6825      	ldr	r5, [r4, #0]
 80018c8:	6968      	ldr	r0, [r5, #20]
 80018ca:	ea27 0000 	bic.w	r0, r7, r0
 80018ce:	b280      	uxth	r0, r0
 80018d0:	b1b8      	cbz	r0, 8001902 <I2C_WaitOnMasterAddressFlagUntilTimeout+0x48>
 80018d2:	696b      	ldr	r3, [r5, #20]
 80018d4:	055a      	lsls	r2, r3, #21
 80018d6:	d516      	bpl.n	8001906 <I2C_WaitOnMasterAddressFlagUntilTimeout+0x4c>
 80018d8:	682b      	ldr	r3, [r5, #0]
 80018da:	f443 7300 	orr.w	r3, r3, #512	; 0x200
 80018de:	602b      	str	r3, [r5, #0]
 80018e0:	f46f 6380 	mvn.w	r3, #1024	; 0x400
 80018e4:	616b      	str	r3, [r5, #20]
 80018e6:	2220      	movs	r2, #32
 80018e8:	2300      	movs	r3, #0
 80018ea:	6323      	str	r3, [r4, #48]	; 0x30
 80018ec:	f884 203d 	strb.w	r2, [r4, #61]	; 0x3d
 80018f0:	f884 303e 	strb.w	r3, [r4, #62]	; 0x3e
 80018f4:	6c22      	ldr	r2, [r4, #64]	; 0x40
 80018f6:	f042 0204 	orr.w	r2, r2, #4
 80018fa:	6422      	str	r2, [r4, #64]	; 0x40
 80018fc:	f884 303c 	strb.w	r3, [r4, #60]	; 0x3c
 8001900:	2001      	movs	r0, #1
 8001902:	e8bd 81f0 	ldmia.w	sp!, {r4, r5, r6, r7, r8, pc}
 8001906:	1c73      	adds	r3, r6, #1
 8001908:	d0de      	beq.n	80018c8 <I2C_WaitOnMasterAddressFlagUntilTimeout+0xe>
 800190a:	f7ff fe3f 	bl	800158c <HAL_GetTick>
 800190e:	eba0 0008 	sub.w	r0, r0, r8
 8001912:	42b0      	cmp	r0, r6
 8001914:	d801      	bhi.n	800191a <I2C_WaitOnMasterAddressFlagUntilTimeout+0x60>
 8001916:	2e00      	cmp	r6, #0
 8001918:	d1d5      	bne.n	80018c6 <I2C_WaitOnMasterAddressFlagUntilTimeout+0xc>
 800191a:	2300      	movs	r3, #0
 800191c:	2220      	movs	r2, #32
 800191e:	6323      	str	r3, [r4, #48]	; 0x30
 8001920:	f884 203d 	strb.w	r2, [r4, #61]	; 0x3d
 8001924:	f884 303e 	strb.w	r3, [r4, #62]	; 0x3e
 8001928:	6c22      	ldr	r2, [r4, #64]	; 0x40
 800192a:	f042 0220 	orr.w	r2, r2, #32
 800192e:	e7e4      	b.n	80018fa <I2C_WaitOnMasterAddressFlagUntilTimeout+0x40>

08001930 <I2C_WaitOnTXEFlagUntilTimeout>:
 8001930:	b570      	push	{r4, r5, r6, lr}
 8001932:	4604      	mov	r4, r0
 8001934:	460d      	mov	r5, r1
 8001936:	4616      	mov	r6, r2
 8001938:	6823      	ldr	r3, [r4, #0]
 800193a:	695b      	ldr	r3, [r3, #20]
 800193c:	061b      	lsls	r3, r3, #24
 800193e:	d501      	bpl.n	8001944 <I2C_WaitOnTXEFlagUntilTimeout+0x14>
 8001940:	2000      	movs	r0, #0
 8001942:	bd70      	pop	{r4, r5, r6, pc}
 8001944:	4620      	mov	r0, r4
 8001946:	f7ff ff6c 	bl	8001822 <I2C_IsAcknowledgeFailed>
 800194a:	b9a8      	cbnz	r0, 8001978 <I2C_WaitOnTXEFlagUntilTimeout+0x48>
 800194c:	1c6a      	adds	r2, r5, #1
 800194e:	d0f3      	beq.n	8001938 <I2C_WaitOnTXEFlagUntilTimeout+0x8>
 8001950:	f7ff fe1c 	bl	800158c <HAL_GetTick>
 8001954:	1b80      	subs	r0, r0, r6
 8001956:	42a8      	cmp	r0, r5
 8001958:	d801      	bhi.n	800195e <I2C_WaitOnTXEFlagUntilTimeout+0x2e>
 800195a:	2d00      	cmp	r5, #0
 800195c:	d1ec      	bne.n	8001938 <I2C_WaitOnTXEFlagUntilTimeout+0x8>
 800195e:	2300      	movs	r3, #0
 8001960:	2220      	movs	r2, #32
 8001962:	6323      	str	r3, [r4, #48]	; 0x30
 8001964:	f884 203d 	strb.w	r2, [r4, #61]	; 0x3d
 8001968:	f884 303e 	strb.w	r3, [r4, #62]	; 0x3e
 800196c:	6c22      	ldr	r2, [r4, #64]	; 0x40
 800196e:	f884 303c 	strb.w	r3, [r4, #60]	; 0x3c
 8001972:	f042 0220 	orr.w	r2, r2, #32
 8001976:	6422      	str	r2, [r4, #64]	; 0x40
 8001978:	2001      	movs	r0, #1
 800197a:	e7e2      	b.n	8001942 <I2C_WaitOnTXEFlagUntilTimeout+0x12>

0800197c <I2C_WaitOnBTFFlagUntilTimeout>:
 800197c:	b570      	push	{r4, r5, r6, lr}
 800197e:	4604      	mov	r4, r0
 8001980:	460d      	mov	r5, r1
 8001982:	4616      	mov	r6, r2
 8001984:	6823      	ldr	r3, [r4, #0]
 8001986:	695b      	ldr	r3, [r3, #20]
 8001988:	075b      	lsls	r3, r3, #29
 800198a:	d501      	bpl.n	8001990 <I2C_WaitOnBTFFlagUntilTimeout+0x14>
 800198c:	2000      	movs	r0, #0
 800198e:	bd70      	pop	{r4, r5, r6, pc}
 8001990:	4620      	mov	r0, r4
 8001992:	f7ff ff46 	bl	8001822 <I2C_IsAcknowledgeFailed>
 8001996:	b9a8      	cbnz	r0, 80019c4 <I2C_WaitOnBTFFlagUntilTimeout+0x48>
 8001998:	1c6a      	adds	r2, r5, #1
 800199a:	d0f3      	beq.n	8001984 <I2C_WaitOnBTFFlagUntilTimeout+0x8>
 800199c:	f7ff fdf6 	bl	800158c <HAL_GetTick>
 80019a0:	1b80      	subs	r0, r0, r6
 80019a2:	42a8      	cmp	r0, r5
 80019a4:	d801      	bhi.n	80019aa <I2C_WaitOnBTFFlagUntilTimeout+0x2e>
 80019a6:	2d00      	cmp	r5, #0
 80019a8:	d1ec      	bne.n	8001984 <I2C_WaitOnBTFFlagUntilTimeout+0x8>
 80019aa:	2300      	movs	r3, #0
 80019ac:	2220      	movs	r2, #32
 80019ae:	6323      	str	r3, [r4, #48]	; 0x30
 80019b0:	f884 203d 	strb.w	r2, [r4, #61]	; 0x3d
 80019b4:	f884 303e 	strb.w	r3, [r4, #62]	; 0x3e
 80019b8:	6c22      	ldr	r2, [r4, #64]	; 0x40
 80019ba:	f884 303c 	strb.w	r3, [r4, #60]	; 0x3c
 80019be:	f042 0220 	orr.w	r2, r2, #32
 80019c2:	6422      	str	r2, [r4, #64]	; 0x40
 80019c4:	2001      	movs	r0, #1
 80019c6:	e7e2      	b.n	800198e <I2C_WaitOnBTFFlagUntilTimeout+0x12>

080019c8 <HAL_I2C_Init>:
 80019c8:	b570      	push	{r4, r5, r6, lr}
 80019ca:	4604      	mov	r4, r0
 80019cc:	b908      	cbnz	r0, 80019d2 <HAL_I2C_Init+0xa>
 80019ce:	2001      	movs	r0, #1
 80019d0:	bd70      	pop	{r4, r5, r6, pc}
 80019d2:	f890 303d 	ldrb.w	r3, [r0, #61]	; 0x3d
 80019d6:	f003 02ff 	and.w	r2, r3, #255	; 0xff
 80019da:	b91b      	cbnz	r3, 80019e4 <HAL_I2C_Init+0x1c>
 80019dc:	f880 203c 	strb.w	r2, [r0, #60]	; 0x3c
 80019e0:	f7ff faa4 	bl	8000f2c <HAL_I2C_MspInit>
 80019e4:	2324      	movs	r3, #36	; 0x24
 80019e6:	f884 303d 	strb.w	r3, [r4, #61]	; 0x3d
 80019ea:	6823      	ldr	r3, [r4, #0]
 80019ec:	681a      	ldr	r2, [r3, #0]
 80019ee:	f022 0201 	bic.w	r2, r2, #1
 80019f2:	601a      	str	r2, [r3, #0]
 80019f4:	681a      	ldr	r2, [r3, #0]
 80019f6:	f442 4200 	orr.w	r2, r2, #32768	; 0x8000
 80019fa:	601a      	str	r2, [r3, #0]
 80019fc:	681a      	ldr	r2, [r3, #0]
 80019fe:	f422 4200 	bic.w	r2, r2, #32768	; 0x8000
 8001a02:	601a      	str	r2, [r3, #0]
 8001a04:	f000 f9fa 	bl	8001dfc <HAL_RCC_GetPCLK1Freq>
 8001a08:	4b3f      	ldr	r3, [pc, #252]	; (8001b08 <HAL_I2C_Init+0x140>)
 8001a0a:	6865      	ldr	r5, [r4, #4]
 8001a0c:	429d      	cmp	r5, r3
 8001a0e:	bf94      	ite	ls
 8001a10:	4b3e      	ldrls	r3, [pc, #248]	; (8001b0c <HAL_I2C_Init+0x144>)
 8001a12:	4b3f      	ldrhi	r3, [pc, #252]	; (8001b10 <HAL_I2C_Init+0x148>)
 8001a14:	4298      	cmp	r0, r3
 8001a16:	bf8c      	ite	hi
 8001a18:	2300      	movhi	r3, #0
 8001a1a:	2301      	movls	r3, #1
 8001a1c:	2b00      	cmp	r3, #0
 8001a1e:	d1d6      	bne.n	80019ce <HAL_I2C_Init+0x6>
 8001a20:	6822      	ldr	r2, [r4, #0]
 8001a22:	4e39      	ldr	r6, [pc, #228]	; (8001b08 <HAL_I2C_Init+0x140>)
 8001a24:	6851      	ldr	r1, [r2, #4]
 8001a26:	4b3b      	ldr	r3, [pc, #236]	; (8001b14 <HAL_I2C_Init+0x14c>)
 8001a28:	fbb0 f3f3 	udiv	r3, r0, r3
 8001a2c:	f021 013f 	bic.w	r1, r1, #63	; 0x3f
 8001a30:	4319      	orrs	r1, r3
 8001a32:	42b5      	cmp	r5, r6
 8001a34:	6051      	str	r1, [r2, #4]
 8001a36:	bf88      	it	hi
 8001a38:	f44f 7696 	movhi.w	r6, #300	; 0x12c
 8001a3c:	6a11      	ldr	r1, [r2, #32]
 8001a3e:	bf88      	it	hi
 8001a40:	4373      	mulhi	r3, r6
 8001a42:	f021 013f 	bic.w	r1, r1, #63	; 0x3f
 8001a46:	bf84      	itt	hi
 8001a48:	f44f 767a 	movhi.w	r6, #1000	; 0x3e8
 8001a4c:	fbb3 f3f6 	udivhi	r3, r3, r6
 8001a50:	3301      	adds	r3, #1
 8001a52:	430b      	orrs	r3, r1
 8001a54:	6213      	str	r3, [r2, #32]
 8001a56:	69d1      	ldr	r1, [r2, #28]
 8001a58:	1e43      	subs	r3, r0, #1
 8001a5a:	482b      	ldr	r0, [pc, #172]	; (8001b08 <HAL_I2C_Init+0x140>)
 8001a5c:	f421 414f 	bic.w	r1, r1, #52992	; 0xcf00
 8001a60:	4285      	cmp	r5, r0
 8001a62:	f021 01ff 	bic.w	r1, r1, #255	; 0xff
 8001a66:	d832      	bhi.n	8001ace <HAL_I2C_Init+0x106>
 8001a68:	006d      	lsls	r5, r5, #1
 8001a6a:	f640 70fc 	movw	r0, #4092	; 0xffc
 8001a6e:	fbb3 f3f5 	udiv	r3, r3, r5
 8001a72:	3301      	adds	r3, #1
 8001a74:	4203      	tst	r3, r0
 8001a76:	d042      	beq.n	8001afe <HAL_I2C_Init+0x136>
 8001a78:	f3c3 030b 	ubfx	r3, r3, #0, #12
 8001a7c:	4319      	orrs	r1, r3
 8001a7e:	61d1      	str	r1, [r2, #28]
 8001a80:	e9d4 3007 	ldrd	r3, r0, [r4, #28]
 8001a84:	6811      	ldr	r1, [r2, #0]
 8001a86:	4303      	orrs	r3, r0
 8001a88:	f021 01c0 	bic.w	r1, r1, #192	; 0xc0
 8001a8c:	430b      	orrs	r3, r1
 8001a8e:	6013      	str	r3, [r2, #0]
 8001a90:	6891      	ldr	r1, [r2, #8]
 8001a92:	e9d4 0303 	ldrd	r0, r3, [r4, #12]
 8001a96:	f421 4103 	bic.w	r1, r1, #33536	; 0x8300
 8001a9a:	4303      	orrs	r3, r0
 8001a9c:	f021 01ff 	bic.w	r1, r1, #255	; 0xff
 8001aa0:	430b      	orrs	r3, r1
 8001aa2:	6093      	str	r3, [r2, #8]
 8001aa4:	e9d4 3005 	ldrd	r3, r0, [r4, #20]
 8001aa8:	68d1      	ldr	r1, [r2, #12]
 8001aaa:	4303      	orrs	r3, r0
 8001aac:	f021 01ff 	bic.w	r1, r1, #255	; 0xff
 8001ab0:	430b      	orrs	r3, r1
 8001ab2:	60d3      	str	r3, [r2, #12]
 8001ab4:	6813      	ldr	r3, [r2, #0]
 8001ab6:	f043 0301 	orr.w	r3, r3, #1
 8001aba:	6013      	str	r3, [r2, #0]
 8001abc:	2000      	movs	r0, #0
 8001abe:	2320      	movs	r3, #32
 8001ac0:	6420      	str	r0, [r4, #64]	; 0x40
 8001ac2:	f884 303d 	strb.w	r3, [r4, #61]	; 0x3d
 8001ac6:	6320      	str	r0, [r4, #48]	; 0x30
 8001ac8:	f884 003e 	strb.w	r0, [r4, #62]	; 0x3e
 8001acc:	e780      	b.n	80019d0 <HAL_I2C_Init+0x8>
 8001ace:	68a0      	ldr	r0, [r4, #8]
 8001ad0:	b950      	cbnz	r0, 8001ae8 <HAL_I2C_Init+0x120>
 8001ad2:	eb05 0545 	add.w	r5, r5, r5, lsl #1
 8001ad6:	fbb3 f3f5 	udiv	r3, r3, r5
 8001ada:	3301      	adds	r3, #1
 8001adc:	f3c3 030b 	ubfx	r3, r3, #0, #12
 8001ae0:	b17b      	cbz	r3, 8001b02 <HAL_I2C_Init+0x13a>
 8001ae2:	f443 4300 	orr.w	r3, r3, #32768	; 0x8000
 8001ae6:	e7c9      	b.n	8001a7c <HAL_I2C_Init+0xb4>
 8001ae8:	2019      	movs	r0, #25
 8001aea:	4368      	muls	r0, r5
 8001aec:	fbb3 f3f0 	udiv	r3, r3, r0
 8001af0:	3301      	adds	r3, #1
 8001af2:	f3c3 030b 	ubfx	r3, r3, #0, #12
 8001af6:	b123      	cbz	r3, 8001b02 <HAL_I2C_Init+0x13a>
 8001af8:	f443 4340 	orr.w	r3, r3, #49152	; 0xc000
 8001afc:	e7be      	b.n	8001a7c <HAL_I2C_Init+0xb4>
 8001afe:	2304      	movs	r3, #4
 8001b00:	e7bc      	b.n	8001a7c <HAL_I2C_Init+0xb4>
 8001b02:	2301      	movs	r3, #1
 8001b04:	e7ba      	b.n	8001a7c <HAL_I2C_Init+0xb4>
 8001b06:	bf00      	nop
 8001b08:	000186a0 	.word	0x000186a0
 8001b0c:	001e847f 	.word	0x001e847f
 8001b10:	003d08ff 	.word	0x003d08ff
 8001b14:	000f4240 	.word	0x000f4240

08001b18 <HAL_I2C_Master_Transmit>:
 8001b18:	e92d 43f0 	stmdb	sp!, {r4, r5, r6, r7, r8, r9, lr}
 8001b1c:	4604      	mov	r4, r0
 8001b1e:	b085      	sub	sp, #20
 8001b20:	4698      	mov	r8, r3
 8001b22:	9f0c      	ldr	r7, [sp, #48]	; 0x30
 8001b24:	460d      	mov	r5, r1
 8001b26:	4691      	mov	r9, r2
 8001b28:	f7ff fd30 	bl	800158c <HAL_GetTick>
 8001b2c:	f894 303d 	ldrb.w	r3, [r4, #61]	; 0x3d
 8001b30:	2b20      	cmp	r3, #32
 8001b32:	4606      	mov	r6, r0
 8001b34:	d004      	beq.n	8001b40 <HAL_I2C_Master_Transmit+0x28>
 8001b36:	2502      	movs	r5, #2
 8001b38:	4628      	mov	r0, r5
 8001b3a:	b005      	add	sp, #20
 8001b3c:	e8bd 83f0 	ldmia.w	sp!, {r4, r5, r6, r7, r8, r9, pc}
 8001b40:	9000      	str	r0, [sp, #0]
 8001b42:	495d      	ldr	r1, [pc, #372]	; (8001cb8 <HAL_I2C_Master_Transmit+0x1a0>)
 8001b44:	2319      	movs	r3, #25
 8001b46:	2201      	movs	r2, #1
 8001b48:	4620      	mov	r0, r4
 8001b4a:	f7ff fe84 	bl	8001856 <I2C_WaitOnFlagUntilTimeout>
 8001b4e:	2800      	cmp	r0, #0
 8001b50:	d1f1      	bne.n	8001b36 <HAL_I2C_Master_Transmit+0x1e>
 8001b52:	f894 303c 	ldrb.w	r3, [r4, #60]	; 0x3c
 8001b56:	2b01      	cmp	r3, #1
 8001b58:	d0ed      	beq.n	8001b36 <HAL_I2C_Master_Transmit+0x1e>
 8001b5a:	6821      	ldr	r1, [r4, #0]
 8001b5c:	2301      	movs	r3, #1
 8001b5e:	f884 303c 	strb.w	r3, [r4, #60]	; 0x3c
 8001b62:	680b      	ldr	r3, [r1, #0]
 8001b64:	07da      	lsls	r2, r3, #31
 8001b66:	bf5e      	ittt	pl
 8001b68:	680b      	ldrpl	r3, [r1, #0]
 8001b6a:	f043 0301 	orrpl.w	r3, r3, #1
 8001b6e:	600b      	strpl	r3, [r1, #0]
 8001b70:	680b      	ldr	r3, [r1, #0]
 8001b72:	f423 6300 	bic.w	r3, r3, #2048	; 0x800
 8001b76:	600b      	str	r3, [r1, #0]
 8001b78:	2321      	movs	r3, #33	; 0x21
 8001b7a:	f884 303d 	strb.w	r3, [r4, #61]	; 0x3d
 8001b7e:	2310      	movs	r3, #16
 8001b80:	f884 303e 	strb.w	r3, [r4, #62]	; 0x3e
 8001b84:	2300      	movs	r3, #0
 8001b86:	6423      	str	r3, [r4, #64]	; 0x40
 8001b88:	f8a4 802a 	strh.w	r8, [r4, #42]	; 0x2a
 8001b8c:	8d63      	ldrh	r3, [r4, #42]	; 0x2a
 8001b8e:	8523      	strh	r3, [r4, #40]	; 0x28
 8001b90:	4b4a      	ldr	r3, [pc, #296]	; (8001cbc <HAL_I2C_Master_Transmit+0x1a4>)
 8001b92:	62e3      	str	r3, [r4, #44]	; 0x2c
 8001b94:	6ae3      	ldr	r3, [r4, #44]	; 0x2c
 8001b96:	f8c4 9024 	str.w	r9, [r4, #36]	; 0x24
 8001b9a:	2b08      	cmp	r3, #8
 8001b9c:	d004      	beq.n	8001ba8 <HAL_I2C_Master_Transmit+0x90>
 8001b9e:	2b01      	cmp	r3, #1
 8001ba0:	d002      	beq.n	8001ba8 <HAL_I2C_Master_Transmit+0x90>
 8001ba2:	f513 3f80 	cmn.w	r3, #65536	; 0x10000
 8001ba6:	d104      	bne.n	8001bb2 <HAL_I2C_Master_Transmit+0x9a>
 8001ba8:	680b      	ldr	r3, [r1, #0]
 8001baa:	f443 7380 	orr.w	r3, r3, #256	; 0x100
 8001bae:	600b      	str	r3, [r1, #0]
 8001bb0:	e002      	b.n	8001bb8 <HAL_I2C_Master_Transmit+0xa0>
 8001bb2:	6b23      	ldr	r3, [r4, #48]	; 0x30
 8001bb4:	2b12      	cmp	r3, #18
 8001bb6:	d0f7      	beq.n	8001ba8 <HAL_I2C_Master_Transmit+0x90>
 8001bb8:	2200      	movs	r2, #0
 8001bba:	9600      	str	r6, [sp, #0]
 8001bbc:	463b      	mov	r3, r7
 8001bbe:	f04f 1101 	mov.w	r1, #65537	; 0x10001
 8001bc2:	4620      	mov	r0, r4
 8001bc4:	f7ff fe47 	bl	8001856 <I2C_WaitOnFlagUntilTimeout>
 8001bc8:	6822      	ldr	r2, [r4, #0]
 8001bca:	b138      	cbz	r0, 8001bdc <HAL_I2C_Master_Transmit+0xc4>
 8001bcc:	6813      	ldr	r3, [r2, #0]
 8001bce:	05db      	lsls	r3, r3, #23
 8001bd0:	bf44      	itt	mi
 8001bd2:	f44f 7300 	movmi.w	r3, #512	; 0x200
 8001bd6:	6423      	strmi	r3, [r4, #64]	; 0x40
 8001bd8:	2501      	movs	r5, #1
 8001bda:	e7ad      	b.n	8001b38 <HAL_I2C_Master_Transmit+0x20>
 8001bdc:	6923      	ldr	r3, [r4, #16]
 8001bde:	f5b3 4f80 	cmp.w	r3, #16384	; 0x4000
 8001be2:	d121      	bne.n	8001c28 <HAL_I2C_Master_Transmit+0x110>
 8001be4:	f005 05fe 	and.w	r5, r5, #254	; 0xfe
 8001be8:	6115      	str	r5, [r2, #16]
 8001bea:	4935      	ldr	r1, [pc, #212]	; (8001cc0 <HAL_I2C_Master_Transmit+0x1a8>)
 8001bec:	4633      	mov	r3, r6
 8001bee:	463a      	mov	r2, r7
 8001bf0:	4620      	mov	r0, r4
 8001bf2:	f7ff fe62 	bl	80018ba <I2C_WaitOnMasterAddressFlagUntilTimeout>
 8001bf6:	4605      	mov	r5, r0
 8001bf8:	2800      	cmp	r0, #0
 8001bfa:	d1ed      	bne.n	8001bd8 <HAL_I2C_Master_Transmit+0xc0>
 8001bfc:	6823      	ldr	r3, [r4, #0]
 8001bfe:	9003      	str	r0, [sp, #12]
 8001c00:	695a      	ldr	r2, [r3, #20]
 8001c02:	9203      	str	r2, [sp, #12]
 8001c04:	699b      	ldr	r3, [r3, #24]
 8001c06:	9303      	str	r3, [sp, #12]
 8001c08:	9b03      	ldr	r3, [sp, #12]
 8001c0a:	8d23      	ldrh	r3, [r4, #40]	; 0x28
 8001c0c:	b9f3      	cbnz	r3, 8001c4c <HAL_I2C_Master_Transmit+0x134>
 8001c0e:	6821      	ldr	r1, [r4, #0]
 8001c10:	680a      	ldr	r2, [r1, #0]
 8001c12:	f442 7200 	orr.w	r2, r2, #512	; 0x200
 8001c16:	600a      	str	r2, [r1, #0]
 8001c18:	2220      	movs	r2, #32
 8001c1a:	f884 203d 	strb.w	r2, [r4, #61]	; 0x3d
 8001c1e:	f884 303c 	strb.w	r3, [r4, #60]	; 0x3c
 8001c22:	f884 303e 	strb.w	r3, [r4, #62]	; 0x3e
 8001c26:	e787      	b.n	8001b38 <HAL_I2C_Master_Transmit+0x20>
 8001c28:	11eb      	asrs	r3, r5, #7
 8001c2a:	f003 0306 	and.w	r3, r3, #6
 8001c2e:	f043 03f0 	orr.w	r3, r3, #240	; 0xf0
 8001c32:	6113      	str	r3, [r2, #16]
 8001c34:	4923      	ldr	r1, [pc, #140]	; (8001cc4 <HAL_I2C_Master_Transmit+0x1ac>)
 8001c36:	4633      	mov	r3, r6
 8001c38:	463a      	mov	r2, r7
 8001c3a:	4620      	mov	r0, r4
 8001c3c:	f7ff fe3d 	bl	80018ba <I2C_WaitOnMasterAddressFlagUntilTimeout>
 8001c40:	2800      	cmp	r0, #0
 8001c42:	d1c9      	bne.n	8001bd8 <HAL_I2C_Master_Transmit+0xc0>
 8001c44:	6823      	ldr	r3, [r4, #0]
 8001c46:	b2ed      	uxtb	r5, r5
 8001c48:	611d      	str	r5, [r3, #16]
 8001c4a:	e7ce      	b.n	8001bea <HAL_I2C_Master_Transmit+0xd2>
 8001c4c:	4632      	mov	r2, r6
 8001c4e:	4639      	mov	r1, r7
 8001c50:	4620      	mov	r0, r4
 8001c52:	f7ff fe6d 	bl	8001930 <I2C_WaitOnTXEFlagUntilTimeout>
 8001c56:	b140      	cbz	r0, 8001c6a <HAL_I2C_Master_Transmit+0x152>
 8001c58:	6c23      	ldr	r3, [r4, #64]	; 0x40
 8001c5a:	2b04      	cmp	r3, #4
 8001c5c:	d1bc      	bne.n	8001bd8 <HAL_I2C_Master_Transmit+0xc0>
 8001c5e:	6822      	ldr	r2, [r4, #0]
 8001c60:	6813      	ldr	r3, [r2, #0]
 8001c62:	f443 7300 	orr.w	r3, r3, #512	; 0x200
 8001c66:	6013      	str	r3, [r2, #0]
 8001c68:	e7b6      	b.n	8001bd8 <HAL_I2C_Master_Transmit+0xc0>
 8001c6a:	6a63      	ldr	r3, [r4, #36]	; 0x24
 8001c6c:	6820      	ldr	r0, [r4, #0]
 8001c6e:	461a      	mov	r2, r3
 8001c70:	f812 1b01 	ldrb.w	r1, [r2], #1
 8001c74:	6101      	str	r1, [r0, #16]
 8001c76:	6262      	str	r2, [r4, #36]	; 0x24
 8001c78:	8d62      	ldrh	r2, [r4, #42]	; 0x2a
 8001c7a:	3a01      	subs	r2, #1
 8001c7c:	b292      	uxth	r2, r2
 8001c7e:	8562      	strh	r2, [r4, #42]	; 0x2a
 8001c80:	8d22      	ldrh	r2, [r4, #40]	; 0x28
 8001c82:	f8d0 c014 	ldr.w	ip, [r0, #20]
 8001c86:	1e51      	subs	r1, r2, #1
 8001c88:	b289      	uxth	r1, r1
 8001c8a:	f01c 0f04 	tst.w	ip, #4
 8001c8e:	8521      	strh	r1, [r4, #40]	; 0x28
 8001c90:	d00a      	beq.n	8001ca8 <HAL_I2C_Master_Transmit+0x190>
 8001c92:	b149      	cbz	r1, 8001ca8 <HAL_I2C_Master_Transmit+0x190>
 8001c94:	7859      	ldrb	r1, [r3, #1]
 8001c96:	6101      	str	r1, [r0, #16]
 8001c98:	3302      	adds	r3, #2
 8001c9a:	6263      	str	r3, [r4, #36]	; 0x24
 8001c9c:	8d63      	ldrh	r3, [r4, #42]	; 0x2a
 8001c9e:	3b01      	subs	r3, #1
 8001ca0:	b29b      	uxth	r3, r3
 8001ca2:	3a02      	subs	r2, #2
 8001ca4:	8563      	strh	r3, [r4, #42]	; 0x2a
 8001ca6:	8522      	strh	r2, [r4, #40]	; 0x28
 8001ca8:	4632      	mov	r2, r6
 8001caa:	4639      	mov	r1, r7
 8001cac:	4620      	mov	r0, r4
 8001cae:	f7ff fe65 	bl	800197c <I2C_WaitOnBTFFlagUntilTimeout>
 8001cb2:	2800      	cmp	r0, #0
 8001cb4:	d0a9      	beq.n	8001c0a <HAL_I2C_Master_Transmit+0xf2>
 8001cb6:	e7cf      	b.n	8001c58 <HAL_I2C_Master_Transmit+0x140>
 8001cb8:	00100002 	.word	0x00100002
 8001cbc:	ffff0000 	.word	0xffff0000
 8001cc0:	00010002 	.word	0x00010002
 8001cc4:	00010008 	.word	0x00010008

08001cc8 <HAL_RCC_ClockConfig>:
 8001cc8:	e92d 41f0 	stmdb	sp!, {r4, r5, r6, r7, r8, lr}
 8001ccc:	460d      	mov	r5, r1
 8001cce:	4604      	mov	r4, r0
 8001cd0:	b910      	cbnz	r0, 8001cd8 <HAL_RCC_ClockConfig+0x10>
 8001cd2:	2001      	movs	r0, #1
 8001cd4:	e8bd 81f0 	ldmia.w	sp!, {r4, r5, r6, r7, r8, pc}
 8001cd8:	4b43      	ldr	r3, [pc, #268]	; (8001de8 <HAL_RCC_ClockConfig+0x120>)
 8001cda:	681a      	ldr	r2, [r3, #0]
 8001cdc:	f002 020f 	and.w	r2, r2, #15
 8001ce0:	428a      	cmp	r2, r1
 8001ce2:	d328      	bcc.n	8001d36 <HAL_RCC_ClockConfig+0x6e>
 8001ce4:	6821      	ldr	r1, [r4, #0]
 8001ce6:	078f      	lsls	r7, r1, #30
 8001ce8:	d42d      	bmi.n	8001d46 <HAL_RCC_ClockConfig+0x7e>
 8001cea:	07c8      	lsls	r0, r1, #31
 8001cec:	d440      	bmi.n	8001d70 <HAL_RCC_ClockConfig+0xa8>
 8001cee:	4b3e      	ldr	r3, [pc, #248]	; (8001de8 <HAL_RCC_ClockConfig+0x120>)
 8001cf0:	681a      	ldr	r2, [r3, #0]
 8001cf2:	f002 020f 	and.w	r2, r2, #15
 8001cf6:	42aa      	cmp	r2, r5
 8001cf8:	d865      	bhi.n	8001dc6 <HAL_RCC_ClockConfig+0xfe>
 8001cfa:	6822      	ldr	r2, [r4, #0]
 8001cfc:	0751      	lsls	r1, r2, #29
 8001cfe:	d46b      	bmi.n	8001dd8 <HAL_RCC_ClockConfig+0x110>
 8001d00:	0713      	lsls	r3, r2, #28
 8001d02:	d507      	bpl.n	8001d14 <HAL_RCC_ClockConfig+0x4c>
 8001d04:	4a39      	ldr	r2, [pc, #228]	; (8001dec <HAL_RCC_ClockConfig+0x124>)
 8001d06:	6921      	ldr	r1, [r4, #16]
 8001d08:	6893      	ldr	r3, [r2, #8]
 8001d0a:	f423 4360 	bic.w	r3, r3, #57344	; 0xe000
 8001d0e:	ea43 03c1 	orr.w	r3, r3, r1, lsl #3
 8001d12:	6093      	str	r3, [r2, #8]
 8001d14:	f000 f8b0 	bl	8001e78 <HAL_RCC_GetSysClockFreq>
 8001d18:	4b34      	ldr	r3, [pc, #208]	; (8001dec <HAL_RCC_ClockConfig+0x124>)
 8001d1a:	4a35      	ldr	r2, [pc, #212]	; (8001df0 <HAL_RCC_ClockConfig+0x128>)
 8001d1c:	689b      	ldr	r3, [r3, #8]
 8001d1e:	f3c3 1303 	ubfx	r3, r3, #4, #4
 8001d22:	5cd3      	ldrb	r3, [r2, r3]
 8001d24:	40d8      	lsrs	r0, r3
 8001d26:	4b33      	ldr	r3, [pc, #204]	; (8001df4 <HAL_RCC_ClockConfig+0x12c>)
 8001d28:	6018      	str	r0, [r3, #0]
 8001d2a:	4b33      	ldr	r3, [pc, #204]	; (8001df8 <HAL_RCC_ClockConfig+0x130>)
 8001d2c:	6818      	ldr	r0, [r3, #0]
 8001d2e:	f7ff fa7f 	bl	8001230 <HAL_InitTick>
 8001d32:	2000      	movs	r0, #0
 8001d34:	e7ce      	b.n	8001cd4 <HAL_RCC_ClockConfig+0xc>
 8001d36:	b2ca      	uxtb	r2, r1
 8001d38:	701a      	strb	r2, [r3, #0]
 8001d3a:	681b      	ldr	r3, [r3, #0]
 8001d3c:	f003 030f 	and.w	r3, r3, #15
 8001d40:	428b      	cmp	r3, r1
 8001d42:	d1c6      	bne.n	8001cd2 <HAL_RCC_ClockConfig+0xa>
 8001d44:	e7ce      	b.n	8001ce4 <HAL_RCC_ClockConfig+0x1c>
 8001d46:	4b29      	ldr	r3, [pc, #164]	; (8001dec <HAL_RCC_ClockConfig+0x124>)
 8001d48:	f011 0f04 	tst.w	r1, #4
 8001d4c:	bf1e      	ittt	ne
 8001d4e:	689a      	ldrne	r2, [r3, #8]
 8001d50:	f442 52e0 	orrne.w	r2, r2, #7168	; 0x1c00
 8001d54:	609a      	strne	r2, [r3, #8]
 8001d56:	070e      	lsls	r6, r1, #28
 8001d58:	bf42      	ittt	mi
 8001d5a:	689a      	ldrmi	r2, [r3, #8]
 8001d5c:	f442 4260 	orrmi.w	r2, r2, #57344	; 0xe000
 8001d60:	609a      	strmi	r2, [r3, #8]
 8001d62:	689a      	ldr	r2, [r3, #8]
 8001d64:	68a0      	ldr	r0, [r4, #8]
 8001d66:	f022 02f0 	bic.w	r2, r2, #240	; 0xf0
 8001d6a:	4302      	orrs	r2, r0
 8001d6c:	609a      	str	r2, [r3, #8]
 8001d6e:	e7bc      	b.n	8001cea <HAL_RCC_ClockConfig+0x22>
 8001d70:	6862      	ldr	r2, [r4, #4]
 8001d72:	4b1e      	ldr	r3, [pc, #120]	; (8001dec <HAL_RCC_ClockConfig+0x124>)
 8001d74:	2a01      	cmp	r2, #1
 8001d76:	d11c      	bne.n	8001db2 <HAL_RCC_ClockConfig+0xea>
 8001d78:	681b      	ldr	r3, [r3, #0]
 8001d7a:	f413 3f00 	tst.w	r3, #131072	; 0x20000
 8001d7e:	d0a8      	beq.n	8001cd2 <HAL_RCC_ClockConfig+0xa>
 8001d80:	4e1a      	ldr	r6, [pc, #104]	; (8001dec <HAL_RCC_ClockConfig+0x124>)
 8001d82:	68b3      	ldr	r3, [r6, #8]
 8001d84:	f023 0303 	bic.w	r3, r3, #3
 8001d88:	4313      	orrs	r3, r2
 8001d8a:	60b3      	str	r3, [r6, #8]
 8001d8c:	f7ff fbfe 	bl	800158c <HAL_GetTick>
 8001d90:	f241 3888 	movw	r8, #5000	; 0x1388
 8001d94:	4607      	mov	r7, r0
 8001d96:	68b3      	ldr	r3, [r6, #8]
 8001d98:	6862      	ldr	r2, [r4, #4]
 8001d9a:	f003 030c 	and.w	r3, r3, #12
 8001d9e:	ebb3 0f82 	cmp.w	r3, r2, lsl #2
 8001da2:	d0a4      	beq.n	8001cee <HAL_RCC_ClockConfig+0x26>
 8001da4:	f7ff fbf2 	bl	800158c <HAL_GetTick>
 8001da8:	1bc0      	subs	r0, r0, r7
 8001daa:	4540      	cmp	r0, r8
 8001dac:	d9f3      	bls.n	8001d96 <HAL_RCC_ClockConfig+0xce>
 8001dae:	2003      	movs	r0, #3
 8001db0:	e790      	b.n	8001cd4 <HAL_RCC_ClockConfig+0xc>
 8001db2:	1e91      	subs	r1, r2, #2
 8001db4:	2901      	cmp	r1, #1
 8001db6:	681b      	ldr	r3, [r3, #0]
 8001db8:	d802      	bhi.n	8001dc0 <HAL_RCC_ClockConfig+0xf8>
 8001dba:	f013 7f00 	tst.w	r3, #33554432	; 0x2000000
 8001dbe:	e7de      	b.n	8001d7e <HAL_RCC_ClockConfig+0xb6>
 8001dc0:	f013 0f02 	tst.w	r3, #2
 8001dc4:	e7db      	b.n	8001d7e <HAL_RCC_ClockConfig+0xb6>
 8001dc6:	b2ea      	uxtb	r2, r5
 8001dc8:	701a      	strb	r2, [r3, #0]
 8001dca:	681b      	ldr	r3, [r3, #0]
 8001dcc:	f003 030f 	and.w	r3, r3, #15
 8001dd0:	42ab      	cmp	r3, r5
 8001dd2:	f47f af7e 	bne.w	8001cd2 <HAL_RCC_ClockConfig+0xa>
 8001dd6:	e790      	b.n	8001cfa <HAL_RCC_ClockConfig+0x32>
 8001dd8:	4904      	ldr	r1, [pc, #16]	; (8001dec <HAL_RCC_ClockConfig+0x124>)
 8001dda:	68e0      	ldr	r0, [r4, #12]
 8001ddc:	688b      	ldr	r3, [r1, #8]
 8001dde:	f423 53e0 	bic.w	r3, r3, #7168	; 0x1c00
 8001de2:	4303      	orrs	r3, r0
 8001de4:	608b      	str	r3, [r1, #8]
 8001de6:	e78b      	b.n	8001d00 <HAL_RCC_ClockConfig+0x38>
 8001de8:	40023c00 	.word	0x40023c00
 8001dec:	40023800 	.word	0x40023800
 8001df0:	08004fb5 	.word	0x08004fb5
 8001df4:	20000010 	.word	0x20000010
 8001df8:	20000018 	.word	0x20000018

08001dfc <HAL_RCC_GetPCLK1Freq>:
 8001dfc:	4b04      	ldr	r3, [pc, #16]	; (8001e10 <HAL_RCC_GetPCLK1Freq+0x14>)
 8001dfe:	4a05      	ldr	r2, [pc, #20]	; (8001e14 <HAL_RCC_GetPCLK1Freq+0x18>)
 8001e00:	689b      	ldr	r3, [r3, #8]
 8001e02:	f3c3 2382 	ubfx	r3, r3, #10, #3
 8001e06:	5cd3      	ldrb	r3, [r2, r3]
 8001e08:	4a03      	ldr	r2, [pc, #12]	; (8001e18 <HAL_RCC_GetPCLK1Freq+0x1c>)
 8001e0a:	6810      	ldr	r0, [r2, #0]
 8001e0c:	40d8      	lsrs	r0, r3
 8001e0e:	4770      	bx	lr
 8001e10:	40023800 	.word	0x40023800
 8001e14:	08004fc5 	.word	0x08004fc5
 8001e18:	20000010 	.word	0x20000010

08001e1c <HAL_RCC_GetPCLK2Freq>:
 8001e1c:	4b04      	ldr	r3, [pc, #16]	; (8001e30 <HAL_RCC_GetPCLK2Freq+0x14>)
 8001e1e:	4a05      	ldr	r2, [pc, #20]	; (8001e34 <HAL_RCC_GetPCLK2Freq+0x18>)
 8001e20:	689b      	ldr	r3, [r3, #8]
 8001e22:	f3c3 3342 	ubfx	r3, r3, #13, #3
 8001e26:	5cd3      	ldrb	r3, [r2, r3]
 8001e28:	4a03      	ldr	r2, [pc, #12]	; (8001e38 <HAL_RCC_GetPCLK2Freq+0x1c>)
 8001e2a:	6810      	ldr	r0, [r2, #0]
 8001e2c:	40d8      	lsrs	r0, r3
 8001e2e:	4770      	bx	lr
 8001e30:	40023800 	.word	0x40023800
 8001e34:	08004fc5 	.word	0x08004fc5
 8001e38:	20000010 	.word	0x20000010

08001e3c <HAL_RCC_GetClockConfig>:
 8001e3c:	230f      	movs	r3, #15
 8001e3e:	6003      	str	r3, [r0, #0]
 8001e40:	4b0b      	ldr	r3, [pc, #44]	; (8001e70 <HAL_RCC_GetClockConfig+0x34>)
 8001e42:	689a      	ldr	r2, [r3, #8]
 8001e44:	f002 0203 	and.w	r2, r2, #3
 8001e48:	6042      	str	r2, [r0, #4]
 8001e4a:	689a      	ldr	r2, [r3, #8]
 8001e4c:	f002 02f0 	and.w	r2, r2, #240	; 0xf0
 8001e50:	6082      	str	r2, [r0, #8]
 8001e52:	689a      	ldr	r2, [r3, #8]
 8001e54:	f402 52e0 	and.w	r2, r2, #7168	; 0x1c00
 8001e58:	60c2      	str	r2, [r0, #12]
 8001e5a:	689b      	ldr	r3, [r3, #8]
 8001e5c:	08db      	lsrs	r3, r3, #3
 8001e5e:	f403 53e0 	and.w	r3, r3, #7168	; 0x1c00
 8001e62:	6103      	str	r3, [r0, #16]
 8001e64:	4b03      	ldr	r3, [pc, #12]	; (8001e74 <HAL_RCC_GetClockConfig+0x38>)
 8001e66:	681b      	ldr	r3, [r3, #0]
 8001e68:	f003 030f 	and.w	r3, r3, #15
 8001e6c:	600b      	str	r3, [r1, #0]
 8001e6e:	4770      	bx	lr
 8001e70:	40023800 	.word	0x40023800
 8001e74:	40023c00 	.word	0x40023c00

08001e78 <HAL_RCC_GetSysClockFreq>:
 8001e78:	4920      	ldr	r1, [pc, #128]	; (8001efc <HAL_RCC_GetSysClockFreq+0x84>)
 8001e7a:	b508      	push	{r3, lr}
 8001e7c:	688b      	ldr	r3, [r1, #8]
 8001e7e:	f003 030c 	and.w	r3, r3, #12
 8001e82:	2b08      	cmp	r3, #8
 8001e84:	d007      	beq.n	8001e96 <HAL_RCC_GetSysClockFreq+0x1e>
 8001e86:	2b0c      	cmp	r3, #12
 8001e88:	d020      	beq.n	8001ecc <HAL_RCC_GetSysClockFreq+0x54>
 8001e8a:	481d      	ldr	r0, [pc, #116]	; (8001f00 <HAL_RCC_GetSysClockFreq+0x88>)
 8001e8c:	4a1d      	ldr	r2, [pc, #116]	; (8001f04 <HAL_RCC_GetSysClockFreq+0x8c>)
 8001e8e:	2b04      	cmp	r3, #4
 8001e90:	bf08      	it	eq
 8001e92:	4610      	moveq	r0, r2
 8001e94:	bd08      	pop	{r3, pc}
 8001e96:	684a      	ldr	r2, [r1, #4]
 8001e98:	684b      	ldr	r3, [r1, #4]
 8001e9a:	6849      	ldr	r1, [r1, #4]
 8001e9c:	f413 0380 	ands.w	r3, r3, #4194304	; 0x400000
 8001ea0:	bf14      	ite	ne
 8001ea2:	4818      	ldrne	r0, [pc, #96]	; (8001f04 <HAL_RCC_GetSysClockFreq+0x8c>)
 8001ea4:	4816      	ldreq	r0, [pc, #88]	; (8001f00 <HAL_RCC_GetSysClockFreq+0x88>)
 8001ea6:	f3c1 1188 	ubfx	r1, r1, #6, #9
 8001eaa:	bf18      	it	ne
 8001eac:	2300      	movne	r3, #0
 8001eae:	f002 023f 	and.w	r2, r2, #63	; 0x3f
 8001eb2:	fba1 0100 	umull	r0, r1, r1, r0
 8001eb6:	f7fe f9ab 	bl	8000210 <__aeabi_uldivmod>
 8001eba:	4b10      	ldr	r3, [pc, #64]	; (8001efc <HAL_RCC_GetSysClockFreq+0x84>)
 8001ebc:	685b      	ldr	r3, [r3, #4]
 8001ebe:	f3c3 4301 	ubfx	r3, r3, #16, #2
 8001ec2:	3301      	adds	r3, #1
 8001ec4:	005b      	lsls	r3, r3, #1
 8001ec6:	fbb0 f0f3 	udiv	r0, r0, r3
 8001eca:	e7e3      	b.n	8001e94 <HAL_RCC_GetSysClockFreq+0x1c>
 8001ecc:	684a      	ldr	r2, [r1, #4]
 8001ece:	684b      	ldr	r3, [r1, #4]
 8001ed0:	6849      	ldr	r1, [r1, #4]
 8001ed2:	f413 0380 	ands.w	r3, r3, #4194304	; 0x400000
 8001ed6:	bf14      	ite	ne
 8001ed8:	480a      	ldrne	r0, [pc, #40]	; (8001f04 <HAL_RCC_GetSysClockFreq+0x8c>)
 8001eda:	4809      	ldreq	r0, [pc, #36]	; (8001f00 <HAL_RCC_GetSysClockFreq+0x88>)
 8001edc:	f3c1 1188 	ubfx	r1, r1, #6, #9
 8001ee0:	bf18      	it	ne
 8001ee2:	2300      	movne	r3, #0
 8001ee4:	f002 023f 	and.w	r2, r2, #63	; 0x3f
 8001ee8:	fba1 0100 	umull	r0, r1, r1, r0
 8001eec:	f7fe f990 	bl	8000210 <__aeabi_uldivmod>
 8001ef0:	4b02      	ldr	r3, [pc, #8]	; (8001efc <HAL_RCC_GetSysClockFreq+0x84>)
 8001ef2:	685b      	ldr	r3, [r3, #4]
 8001ef4:	f3c3 7302 	ubfx	r3, r3, #28, #3
 8001ef8:	e7e5      	b.n	8001ec6 <HAL_RCC_GetSysClockFreq+0x4e>
 8001efa:	bf00      	nop
 8001efc:	40023800 	.word	0x40023800
 8001f00:	00f42400 	.word	0x00f42400
 8001f04:	007a1200 	.word	0x007a1200

08001f08 <HAL_RCC_OscConfig>:
 8001f08:	e92d 41f3 	stmdb	sp!, {r0, r1, r4, r5, r6, r7, r8, lr}
 8001f0c:	4604      	mov	r4, r0
 8001f0e:	2800      	cmp	r0, #0
 8001f10:	d031      	beq.n	8001f76 <HAL_RCC_OscConfig+0x6e>
 8001f12:	6803      	ldr	r3, [r0, #0]
 8001f14:	07df      	lsls	r7, r3, #31
 8001f16:	d410      	bmi.n	8001f3a <HAL_RCC_OscConfig+0x32>
 8001f18:	6823      	ldr	r3, [r4, #0]
 8001f1a:	079e      	lsls	r6, r3, #30
 8001f1c:	d467      	bmi.n	8001fee <HAL_RCC_OscConfig+0xe6>
 8001f1e:	6823      	ldr	r3, [r4, #0]
 8001f20:	071a      	lsls	r2, r3, #28
 8001f22:	f100 80b2 	bmi.w	800208a <HAL_RCC_OscConfig+0x182>
 8001f26:	6823      	ldr	r3, [r4, #0]
 8001f28:	075b      	lsls	r3, r3, #29
 8001f2a:	f100 80d2 	bmi.w	80020d2 <HAL_RCC_OscConfig+0x1ca>
 8001f2e:	69a0      	ldr	r0, [r4, #24]
 8001f30:	2800      	cmp	r0, #0
 8001f32:	f040 8139 	bne.w	80021a8 <HAL_RCC_OscConfig+0x2a0>
 8001f36:	2000      	movs	r0, #0
 8001f38:	e034      	b.n	8001fa4 <HAL_RCC_OscConfig+0x9c>
 8001f3a:	4b98      	ldr	r3, [pc, #608]	; (800219c <HAL_RCC_OscConfig+0x294>)
 8001f3c:	689a      	ldr	r2, [r3, #8]
 8001f3e:	f002 020c 	and.w	r2, r2, #12
 8001f42:	2a04      	cmp	r2, #4
 8001f44:	d010      	beq.n	8001f68 <HAL_RCC_OscConfig+0x60>
 8001f46:	689a      	ldr	r2, [r3, #8]
 8001f48:	f002 020c 	and.w	r2, r2, #12
 8001f4c:	2a08      	cmp	r2, #8
 8001f4e:	d102      	bne.n	8001f56 <HAL_RCC_OscConfig+0x4e>
 8001f50:	685b      	ldr	r3, [r3, #4]
 8001f52:	025d      	lsls	r5, r3, #9
 8001f54:	d408      	bmi.n	8001f68 <HAL_RCC_OscConfig+0x60>
 8001f56:	4b91      	ldr	r3, [pc, #580]	; (800219c <HAL_RCC_OscConfig+0x294>)
 8001f58:	689a      	ldr	r2, [r3, #8]
 8001f5a:	f002 020c 	and.w	r2, r2, #12
 8001f5e:	2a0c      	cmp	r2, #12
 8001f60:	d10b      	bne.n	8001f7a <HAL_RCC_OscConfig+0x72>
 8001f62:	685a      	ldr	r2, [r3, #4]
 8001f64:	0250      	lsls	r0, r2, #9
 8001f66:	d508      	bpl.n	8001f7a <HAL_RCC_OscConfig+0x72>
 8001f68:	4b8c      	ldr	r3, [pc, #560]	; (800219c <HAL_RCC_OscConfig+0x294>)
 8001f6a:	681b      	ldr	r3, [r3, #0]
 8001f6c:	0399      	lsls	r1, r3, #14
 8001f6e:	d5d3      	bpl.n	8001f18 <HAL_RCC_OscConfig+0x10>
 8001f70:	6863      	ldr	r3, [r4, #4]
 8001f72:	2b00      	cmp	r3, #0
 8001f74:	d1d0      	bne.n	8001f18 <HAL_RCC_OscConfig+0x10>
 8001f76:	2001      	movs	r0, #1
 8001f78:	e014      	b.n	8001fa4 <HAL_RCC_OscConfig+0x9c>
 8001f7a:	6862      	ldr	r2, [r4, #4]
 8001f7c:	f5b2 3f80 	cmp.w	r2, #65536	; 0x10000
 8001f80:	d113      	bne.n	8001faa <HAL_RCC_OscConfig+0xa2>
 8001f82:	681a      	ldr	r2, [r3, #0]
 8001f84:	f442 3280 	orr.w	r2, r2, #65536	; 0x10000
 8001f88:	601a      	str	r2, [r3, #0]
 8001f8a:	f7ff faff 	bl	800158c <HAL_GetTick>
 8001f8e:	4e83      	ldr	r6, [pc, #524]	; (800219c <HAL_RCC_OscConfig+0x294>)
 8001f90:	4605      	mov	r5, r0
 8001f92:	6833      	ldr	r3, [r6, #0]
 8001f94:	039a      	lsls	r2, r3, #14
 8001f96:	d4bf      	bmi.n	8001f18 <HAL_RCC_OscConfig+0x10>
 8001f98:	f7ff faf8 	bl	800158c <HAL_GetTick>
 8001f9c:	1b40      	subs	r0, r0, r5
 8001f9e:	2864      	cmp	r0, #100	; 0x64
 8001fa0:	d9f7      	bls.n	8001f92 <HAL_RCC_OscConfig+0x8a>
 8001fa2:	2003      	movs	r0, #3
 8001fa4:	b002      	add	sp, #8
 8001fa6:	e8bd 81f0 	ldmia.w	sp!, {r4, r5, r6, r7, r8, pc}
 8001faa:	4d7c      	ldr	r5, [pc, #496]	; (800219c <HAL_RCC_OscConfig+0x294>)
 8001fac:	f5b2 2fa0 	cmp.w	r2, #327680	; 0x50000
 8001fb0:	682b      	ldr	r3, [r5, #0]
 8001fb2:	d107      	bne.n	8001fc4 <HAL_RCC_OscConfig+0xbc>
 8001fb4:	f443 2380 	orr.w	r3, r3, #262144	; 0x40000
 8001fb8:	602b      	str	r3, [r5, #0]
 8001fba:	682b      	ldr	r3, [r5, #0]
 8001fbc:	f443 3380 	orr.w	r3, r3, #65536	; 0x10000
 8001fc0:	602b      	str	r3, [r5, #0]
 8001fc2:	e7e2      	b.n	8001f8a <HAL_RCC_OscConfig+0x82>
 8001fc4:	f423 3380 	bic.w	r3, r3, #65536	; 0x10000
 8001fc8:	602b      	str	r3, [r5, #0]
 8001fca:	682b      	ldr	r3, [r5, #0]
 8001fcc:	f423 2380 	bic.w	r3, r3, #262144	; 0x40000
 8001fd0:	602b      	str	r3, [r5, #0]
 8001fd2:	2a00      	cmp	r2, #0
 8001fd4:	d1d9      	bne.n	8001f8a <HAL_RCC_OscConfig+0x82>
 8001fd6:	f7ff fad9 	bl	800158c <HAL_GetTick>
 8001fda:	4606      	mov	r6, r0
 8001fdc:	682b      	ldr	r3, [r5, #0]
 8001fde:	039b      	lsls	r3, r3, #14
 8001fe0:	d59a      	bpl.n	8001f18 <HAL_RCC_OscConfig+0x10>
 8001fe2:	f7ff fad3 	bl	800158c <HAL_GetTick>
 8001fe6:	1b80      	subs	r0, r0, r6
 8001fe8:	2864      	cmp	r0, #100	; 0x64
 8001fea:	d9f7      	bls.n	8001fdc <HAL_RCC_OscConfig+0xd4>
 8001fec:	e7d9      	b.n	8001fa2 <HAL_RCC_OscConfig+0x9a>
 8001fee:	4b6b      	ldr	r3, [pc, #428]	; (800219c <HAL_RCC_OscConfig+0x294>)
 8001ff0:	689a      	ldr	r2, [r3, #8]
 8001ff2:	f012 0f0c 	tst.w	r2, #12
 8001ff6:	d010      	beq.n	800201a <HAL_RCC_OscConfig+0x112>
 8001ff8:	689a      	ldr	r2, [r3, #8]
 8001ffa:	f002 020c 	and.w	r2, r2, #12
 8001ffe:	2a08      	cmp	r2, #8
 8002000:	d102      	bne.n	8002008 <HAL_RCC_OscConfig+0x100>
 8002002:	685b      	ldr	r3, [r3, #4]
 8002004:	025f      	lsls	r7, r3, #9
 8002006:	d508      	bpl.n	800201a <HAL_RCC_OscConfig+0x112>
 8002008:	4a64      	ldr	r2, [pc, #400]	; (800219c <HAL_RCC_OscConfig+0x294>)
 800200a:	6893      	ldr	r3, [r2, #8]
 800200c:	f003 030c 	and.w	r3, r3, #12
 8002010:	2b0c      	cmp	r3, #12
 8002012:	d111      	bne.n	8002038 <HAL_RCC_OscConfig+0x130>
 8002014:	6853      	ldr	r3, [r2, #4]
 8002016:	025e      	lsls	r6, r3, #9
 8002018:	d40e      	bmi.n	8002038 <HAL_RCC_OscConfig+0x130>
 800201a:	4a60      	ldr	r2, [pc, #384]	; (800219c <HAL_RCC_OscConfig+0x294>)
 800201c:	6813      	ldr	r3, [r2, #0]
 800201e:	079d      	lsls	r5, r3, #30
 8002020:	d502      	bpl.n	8002028 <HAL_RCC_OscConfig+0x120>
 8002022:	68e3      	ldr	r3, [r4, #12]
 8002024:	2b01      	cmp	r3, #1
 8002026:	d1a6      	bne.n	8001f76 <HAL_RCC_OscConfig+0x6e>
 8002028:	6813      	ldr	r3, [r2, #0]
 800202a:	6921      	ldr	r1, [r4, #16]
 800202c:	f023 03f8 	bic.w	r3, r3, #248	; 0xf8
 8002030:	ea43 03c1 	orr.w	r3, r3, r1, lsl #3
 8002034:	6013      	str	r3, [r2, #0]
 8002036:	e772      	b.n	8001f1e <HAL_RCC_OscConfig+0x16>
 8002038:	68e2      	ldr	r2, [r4, #12]
 800203a:	4b59      	ldr	r3, [pc, #356]	; (80021a0 <HAL_RCC_OscConfig+0x298>)
 800203c:	b1b2      	cbz	r2, 800206c <HAL_RCC_OscConfig+0x164>
 800203e:	2201      	movs	r2, #1
 8002040:	601a      	str	r2, [r3, #0]
 8002042:	f7ff faa3 	bl	800158c <HAL_GetTick>
 8002046:	4d55      	ldr	r5, [pc, #340]	; (800219c <HAL_RCC_OscConfig+0x294>)
 8002048:	4606      	mov	r6, r0
 800204a:	682b      	ldr	r3, [r5, #0]
 800204c:	0798      	lsls	r0, r3, #30
 800204e:	d507      	bpl.n	8002060 <HAL_RCC_OscConfig+0x158>
 8002050:	682b      	ldr	r3, [r5, #0]
 8002052:	6922      	ldr	r2, [r4, #16]
 8002054:	f023 03f8 	bic.w	r3, r3, #248	; 0xf8
 8002058:	ea43 03c2 	orr.w	r3, r3, r2, lsl #3
 800205c:	602b      	str	r3, [r5, #0]
 800205e:	e75e      	b.n	8001f1e <HAL_RCC_OscConfig+0x16>
 8002060:	f7ff fa94 	bl	800158c <HAL_GetTick>
 8002064:	1b80      	subs	r0, r0, r6
 8002066:	2802      	cmp	r0, #2
 8002068:	d9ef      	bls.n	800204a <HAL_RCC_OscConfig+0x142>
 800206a:	e79a      	b.n	8001fa2 <HAL_RCC_OscConfig+0x9a>
 800206c:	601a      	str	r2, [r3, #0]
 800206e:	f7ff fa8d 	bl	800158c <HAL_GetTick>
 8002072:	4e4a      	ldr	r6, [pc, #296]	; (800219c <HAL_RCC_OscConfig+0x294>)
 8002074:	4605      	mov	r5, r0
 8002076:	6833      	ldr	r3, [r6, #0]
 8002078:	0799      	lsls	r1, r3, #30
 800207a:	f57f af50 	bpl.w	8001f1e <HAL_RCC_OscConfig+0x16>
 800207e:	f7ff fa85 	bl	800158c <HAL_GetTick>
 8002082:	1b40      	subs	r0, r0, r5
 8002084:	2802      	cmp	r0, #2
 8002086:	d9f6      	bls.n	8002076 <HAL_RCC_OscConfig+0x16e>
 8002088:	e78b      	b.n	8001fa2 <HAL_RCC_OscConfig+0x9a>
 800208a:	6962      	ldr	r2, [r4, #20]
 800208c:	4b44      	ldr	r3, [pc, #272]	; (80021a0 <HAL_RCC_OscConfig+0x298>)
 800208e:	b182      	cbz	r2, 80020b2 <HAL_RCC_OscConfig+0x1aa>
 8002090:	2201      	movs	r2, #1
 8002092:	f8c3 2e80 	str.w	r2, [r3, #3712]	; 0xe80
 8002096:	f7ff fa79 	bl	800158c <HAL_GetTick>
 800209a:	4e40      	ldr	r6, [pc, #256]	; (800219c <HAL_RCC_OscConfig+0x294>)
 800209c:	4605      	mov	r5, r0
 800209e:	6f73      	ldr	r3, [r6, #116]	; 0x74
 80020a0:	079f      	lsls	r7, r3, #30
 80020a2:	f53f af40 	bmi.w	8001f26 <HAL_RCC_OscConfig+0x1e>
 80020a6:	f7ff fa71 	bl	800158c <HAL_GetTick>
 80020aa:	1b40      	subs	r0, r0, r5
 80020ac:	2802      	cmp	r0, #2
 80020ae:	d9f6      	bls.n	800209e <HAL_RCC_OscConfig+0x196>
 80020b0:	e777      	b.n	8001fa2 <HAL_RCC_OscConfig+0x9a>
 80020b2:	f8c3 2e80 	str.w	r2, [r3, #3712]	; 0xe80
 80020b6:	f7ff fa69 	bl	800158c <HAL_GetTick>
 80020ba:	4e38      	ldr	r6, [pc, #224]	; (800219c <HAL_RCC_OscConfig+0x294>)
 80020bc:	4605      	mov	r5, r0
 80020be:	6f73      	ldr	r3, [r6, #116]	; 0x74
 80020c0:	0798      	lsls	r0, r3, #30
 80020c2:	f57f af30 	bpl.w	8001f26 <HAL_RCC_OscConfig+0x1e>
 80020c6:	f7ff fa61 	bl	800158c <HAL_GetTick>
 80020ca:	1b40      	subs	r0, r0, r5
 80020cc:	2802      	cmp	r0, #2
 80020ce:	d9f6      	bls.n	80020be <HAL_RCC_OscConfig+0x1b6>
 80020d0:	e767      	b.n	8001fa2 <HAL_RCC_OscConfig+0x9a>
 80020d2:	4b32      	ldr	r3, [pc, #200]	; (800219c <HAL_RCC_OscConfig+0x294>)
 80020d4:	6c1a      	ldr	r2, [r3, #64]	; 0x40
 80020d6:	f012 5280 	ands.w	r2, r2, #268435456	; 0x10000000
 80020da:	d128      	bne.n	800212e <HAL_RCC_OscConfig+0x226>
 80020dc:	9201      	str	r2, [sp, #4]
 80020de:	6c1a      	ldr	r2, [r3, #64]	; 0x40
 80020e0:	f042 5280 	orr.w	r2, r2, #268435456	; 0x10000000
 80020e4:	641a      	str	r2, [r3, #64]	; 0x40
 80020e6:	6c1b      	ldr	r3, [r3, #64]	; 0x40
 80020e8:	f003 5380 	and.w	r3, r3, #268435456	; 0x10000000
 80020ec:	9301      	str	r3, [sp, #4]
 80020ee:	9b01      	ldr	r3, [sp, #4]
 80020f0:	2701      	movs	r7, #1
 80020f2:	4d2c      	ldr	r5, [pc, #176]	; (80021a4 <HAL_RCC_OscConfig+0x29c>)
 80020f4:	682b      	ldr	r3, [r5, #0]
 80020f6:	05d9      	lsls	r1, r3, #23
 80020f8:	d51b      	bpl.n	8002132 <HAL_RCC_OscConfig+0x22a>
 80020fa:	68a3      	ldr	r3, [r4, #8]
 80020fc:	4d27      	ldr	r5, [pc, #156]	; (800219c <HAL_RCC_OscConfig+0x294>)
 80020fe:	2b01      	cmp	r3, #1
 8002100:	d127      	bne.n	8002152 <HAL_RCC_OscConfig+0x24a>
 8002102:	6f2b      	ldr	r3, [r5, #112]	; 0x70
 8002104:	f043 0301 	orr.w	r3, r3, #1
 8002108:	672b      	str	r3, [r5, #112]	; 0x70
 800210a:	f7ff fa3f 	bl	800158c <HAL_GetTick>
 800210e:	4e23      	ldr	r6, [pc, #140]	; (800219c <HAL_RCC_OscConfig+0x294>)
 8002110:	4605      	mov	r5, r0
 8002112:	f241 3888 	movw	r8, #5000	; 0x1388
 8002116:	6f33      	ldr	r3, [r6, #112]	; 0x70
 8002118:	079b      	lsls	r3, r3, #30
 800211a:	d539      	bpl.n	8002190 <HAL_RCC_OscConfig+0x288>
 800211c:	2f00      	cmp	r7, #0
 800211e:	f43f af06 	beq.w	8001f2e <HAL_RCC_OscConfig+0x26>
 8002122:	4a1e      	ldr	r2, [pc, #120]	; (800219c <HAL_RCC_OscConfig+0x294>)
 8002124:	6c13      	ldr	r3, [r2, #64]	; 0x40
 8002126:	f023 5380 	bic.w	r3, r3, #268435456	; 0x10000000
 800212a:	6413      	str	r3, [r2, #64]	; 0x40
 800212c:	e6ff      	b.n	8001f2e <HAL_RCC_OscConfig+0x26>
 800212e:	2700      	movs	r7, #0
 8002130:	e7df      	b.n	80020f2 <HAL_RCC_OscConfig+0x1ea>
 8002132:	682b      	ldr	r3, [r5, #0]
 8002134:	f443 7380 	orr.w	r3, r3, #256	; 0x100
 8002138:	602b      	str	r3, [r5, #0]
 800213a:	f7ff fa27 	bl	800158c <HAL_GetTick>
 800213e:	4606      	mov	r6, r0
 8002140:	682b      	ldr	r3, [r5, #0]
 8002142:	05da      	lsls	r2, r3, #23
 8002144:	d4d9      	bmi.n	80020fa <HAL_RCC_OscConfig+0x1f2>
 8002146:	f7ff fa21 	bl	800158c <HAL_GetTick>
 800214a:	1b80      	subs	r0, r0, r6
 800214c:	2802      	cmp	r0, #2
 800214e:	d9f7      	bls.n	8002140 <HAL_RCC_OscConfig+0x238>
 8002150:	e727      	b.n	8001fa2 <HAL_RCC_OscConfig+0x9a>
 8002152:	2b05      	cmp	r3, #5
 8002154:	d104      	bne.n	8002160 <HAL_RCC_OscConfig+0x258>
 8002156:	6f2b      	ldr	r3, [r5, #112]	; 0x70
 8002158:	f043 0304 	orr.w	r3, r3, #4
 800215c:	672b      	str	r3, [r5, #112]	; 0x70
 800215e:	e7d0      	b.n	8002102 <HAL_RCC_OscConfig+0x1fa>
 8002160:	6f2a      	ldr	r2, [r5, #112]	; 0x70
 8002162:	f022 0201 	bic.w	r2, r2, #1
 8002166:	672a      	str	r2, [r5, #112]	; 0x70
 8002168:	6f2a      	ldr	r2, [r5, #112]	; 0x70
 800216a:	f022 0204 	bic.w	r2, r2, #4
 800216e:	672a      	str	r2, [r5, #112]	; 0x70
 8002170:	2b00      	cmp	r3, #0
 8002172:	d1ca      	bne.n	800210a <HAL_RCC_OscConfig+0x202>
 8002174:	f7ff fa0a 	bl	800158c <HAL_GetTick>
 8002178:	f241 3888 	movw	r8, #5000	; 0x1388
 800217c:	4606      	mov	r6, r0
 800217e:	6f2b      	ldr	r3, [r5, #112]	; 0x70
 8002180:	0798      	lsls	r0, r3, #30
 8002182:	d5cb      	bpl.n	800211c <HAL_RCC_OscConfig+0x214>
 8002184:	f7ff fa02 	bl	800158c <HAL_GetTick>
 8002188:	1b80      	subs	r0, r0, r6
 800218a:	4540      	cmp	r0, r8
 800218c:	d9f7      	bls.n	800217e <HAL_RCC_OscConfig+0x276>
 800218e:	e708      	b.n	8001fa2 <HAL_RCC_OscConfig+0x9a>
 8002190:	f7ff f9fc 	bl	800158c <HAL_GetTick>
 8002194:	1b40      	subs	r0, r0, r5
 8002196:	4540      	cmp	r0, r8
 8002198:	d9bd      	bls.n	8002116 <HAL_RCC_OscConfig+0x20e>
 800219a:	e702      	b.n	8001fa2 <HAL_RCC_OscConfig+0x9a>
 800219c:	40023800 	.word	0x40023800
 80021a0:	42470000 	.word	0x42470000
 80021a4:	40007000 	.word	0x40007000
 80021a8:	4d3b      	ldr	r5, [pc, #236]	; (8002298 <HAL_RCC_OscConfig+0x390>)
 80021aa:	68ab      	ldr	r3, [r5, #8]
 80021ac:	f003 030c 	and.w	r3, r3, #12
 80021b0:	2b08      	cmp	r3, #8
 80021b2:	d040      	beq.n	8002236 <HAL_RCC_OscConfig+0x32e>
 80021b4:	4b39      	ldr	r3, [pc, #228]	; (800229c <HAL_RCC_OscConfig+0x394>)
 80021b6:	2200      	movs	r2, #0
 80021b8:	2802      	cmp	r0, #2
 80021ba:	661a      	str	r2, [r3, #96]	; 0x60
 80021bc:	d12e      	bne.n	800221c <HAL_RCC_OscConfig+0x314>
 80021be:	f7ff f9e5 	bl	800158c <HAL_GetTick>
 80021c2:	4606      	mov	r6, r0
 80021c4:	682b      	ldr	r3, [r5, #0]
 80021c6:	0199      	lsls	r1, r3, #6
 80021c8:	d422      	bmi.n	8002210 <HAL_RCC_OscConfig+0x308>
 80021ca:	e9d4 3207 	ldrd	r3, r2, [r4, #28]
 80021ce:	4313      	orrs	r3, r2
 80021d0:	6a62      	ldr	r2, [r4, #36]	; 0x24
 80021d2:	ea43 1382 	orr.w	r3, r3, r2, lsl #6
 80021d6:	6ae2      	ldr	r2, [r4, #44]	; 0x2c
 80021d8:	ea43 6302 	orr.w	r3, r3, r2, lsl #24
 80021dc:	6b22      	ldr	r2, [r4, #48]	; 0x30
 80021de:	ea43 7302 	orr.w	r3, r3, r2, lsl #28
 80021e2:	6aa2      	ldr	r2, [r4, #40]	; 0x28
 80021e4:	0852      	lsrs	r2, r2, #1
 80021e6:	3a01      	subs	r2, #1
 80021e8:	ea43 4302 	orr.w	r3, r3, r2, lsl #16
 80021ec:	606b      	str	r3, [r5, #4]
 80021ee:	4b2b      	ldr	r3, [pc, #172]	; (800229c <HAL_RCC_OscConfig+0x394>)
 80021f0:	4d29      	ldr	r5, [pc, #164]	; (8002298 <HAL_RCC_OscConfig+0x390>)
 80021f2:	2201      	movs	r2, #1
 80021f4:	661a      	str	r2, [r3, #96]	; 0x60
 80021f6:	f7ff f9c9 	bl	800158c <HAL_GetTick>
 80021fa:	4604      	mov	r4, r0
 80021fc:	682b      	ldr	r3, [r5, #0]
 80021fe:	019a      	lsls	r2, r3, #6
 8002200:	f53f ae99 	bmi.w	8001f36 <HAL_RCC_OscConfig+0x2e>
 8002204:	f7ff f9c2 	bl	800158c <HAL_GetTick>
 8002208:	1b00      	subs	r0, r0, r4
 800220a:	2802      	cmp	r0, #2
 800220c:	d9f6      	bls.n	80021fc <HAL_RCC_OscConfig+0x2f4>
 800220e:	e6c8      	b.n	8001fa2 <HAL_RCC_OscConfig+0x9a>
 8002210:	f7ff f9bc 	bl	800158c <HAL_GetTick>
 8002214:	1b80      	subs	r0, r0, r6
 8002216:	2802      	cmp	r0, #2
 8002218:	d9d4      	bls.n	80021c4 <HAL_RCC_OscConfig+0x2bc>
 800221a:	e6c2      	b.n	8001fa2 <HAL_RCC_OscConfig+0x9a>
 800221c:	f7ff f9b6 	bl	800158c <HAL_GetTick>
 8002220:	4604      	mov	r4, r0
 8002222:	682b      	ldr	r3, [r5, #0]
 8002224:	019b      	lsls	r3, r3, #6
 8002226:	f57f ae86 	bpl.w	8001f36 <HAL_RCC_OscConfig+0x2e>
 800222a:	f7ff f9af 	bl	800158c <HAL_GetTick>
 800222e:	1b00      	subs	r0, r0, r4
 8002230:	2802      	cmp	r0, #2
 8002232:	d9f6      	bls.n	8002222 <HAL_RCC_OscConfig+0x31a>
 8002234:	e6b5      	b.n	8001fa2 <HAL_RCC_OscConfig+0x9a>
 8002236:	2801      	cmp	r0, #1
 8002238:	f43f aeb4 	beq.w	8001fa4 <HAL_RCC_OscConfig+0x9c>
 800223c:	686b      	ldr	r3, [r5, #4]
 800223e:	69e2      	ldr	r2, [r4, #28]
 8002240:	f403 0180 	and.w	r1, r3, #4194304	; 0x400000
 8002244:	4291      	cmp	r1, r2
 8002246:	f47f ae96 	bne.w	8001f76 <HAL_RCC_OscConfig+0x6e>
 800224a:	6a21      	ldr	r1, [r4, #32]
 800224c:	f003 023f 	and.w	r2, r3, #63	; 0x3f
 8002250:	428a      	cmp	r2, r1
 8002252:	f47f ae90 	bne.w	8001f76 <HAL_RCC_OscConfig+0x6e>
 8002256:	6a61      	ldr	r1, [r4, #36]	; 0x24
 8002258:	f647 72c0 	movw	r2, #32704	; 0x7fc0
 800225c:	401a      	ands	r2, r3
 800225e:	ebb2 1f81 	cmp.w	r2, r1, lsl #6
 8002262:	f47f ae88 	bne.w	8001f76 <HAL_RCC_OscConfig+0x6e>
 8002266:	6aa2      	ldr	r2, [r4, #40]	; 0x28
 8002268:	0852      	lsrs	r2, r2, #1
 800226a:	f403 3140 	and.w	r1, r3, #196608	; 0x30000
 800226e:	3a01      	subs	r2, #1
 8002270:	ebb1 4f02 	cmp.w	r1, r2, lsl #16
 8002274:	f47f ae7f 	bne.w	8001f76 <HAL_RCC_OscConfig+0x6e>
 8002278:	6ae1      	ldr	r1, [r4, #44]	; 0x2c
 800227a:	f003 6270 	and.w	r2, r3, #251658240	; 0xf000000
 800227e:	ebb2 6f01 	cmp.w	r2, r1, lsl #24
 8002282:	f47f ae78 	bne.w	8001f76 <HAL_RCC_OscConfig+0x6e>
 8002286:	6b22      	ldr	r2, [r4, #48]	; 0x30
 8002288:	f003 43e0 	and.w	r3, r3, #1879048192	; 0x70000000
 800228c:	ebb3 7f02 	cmp.w	r3, r2, lsl #28
 8002290:	f43f ae51 	beq.w	8001f36 <HAL_RCC_OscConfig+0x2e>
 8002294:	e66f      	b.n	8001f76 <HAL_RCC_OscConfig+0x6e>
 8002296:	bf00      	nop
 8002298:	40023800 	.word	0x40023800
 800229c:	42470000 	.word	0x42470000

080022a0 <SPI_WaitFlagStateUntilTimeout.constprop.0>:
 80022a0:	e92d 41f3 	stmdb	sp!, {r0, r1, r4, r5, r6, r7, r8, lr}
 80022a4:	461c      	mov	r4, r3
 80022a6:	4616      	mov	r6, r2
 80022a8:	460f      	mov	r7, r1
 80022aa:	4605      	mov	r5, r0
 80022ac:	f7ff f96e 	bl	800158c <HAL_GetTick>
 80022b0:	4434      	add	r4, r6
 80022b2:	1a24      	subs	r4, r4, r0
 80022b4:	f7ff f96a 	bl	800158c <HAL_GetTick>
 80022b8:	4b23      	ldr	r3, [pc, #140]	; (8002348 <SPI_WaitFlagStateUntilTimeout.constprop.0+0xa8>)
 80022ba:	681b      	ldr	r3, [r3, #0]
 80022bc:	f3c3 33cb 	ubfx	r3, r3, #15, #12
 80022c0:	4680      	mov	r8, r0
 80022c2:	4363      	muls	r3, r4
 80022c4:	682a      	ldr	r2, [r5, #0]
 80022c6:	9301      	str	r3, [sp, #4]
 80022c8:	6893      	ldr	r3, [r2, #8]
 80022ca:	ea37 0303 	bics.w	r3, r7, r3
 80022ce:	d001      	beq.n	80022d4 <SPI_WaitFlagStateUntilTimeout.constprop.0+0x34>
 80022d0:	2000      	movs	r0, #0
 80022d2:	e02e      	b.n	8002332 <SPI_WaitFlagStateUntilTimeout.constprop.0+0x92>
 80022d4:	1c73      	adds	r3, r6, #1
 80022d6:	d0f7      	beq.n	80022c8 <SPI_WaitFlagStateUntilTimeout.constprop.0+0x28>
 80022d8:	f7ff f958 	bl	800158c <HAL_GetTick>
 80022dc:	eba0 0008 	sub.w	r0, r0, r8
 80022e0:	42a0      	cmp	r0, r4
 80022e2:	d329      	bcc.n	8002338 <SPI_WaitFlagStateUntilTimeout.constprop.0+0x98>
 80022e4:	682b      	ldr	r3, [r5, #0]
 80022e6:	685a      	ldr	r2, [r3, #4]
 80022e8:	f022 02e0 	bic.w	r2, r2, #224	; 0xe0
 80022ec:	605a      	str	r2, [r3, #4]
 80022ee:	686a      	ldr	r2, [r5, #4]
 80022f0:	f5b2 7f82 	cmp.w	r2, #260	; 0x104
 80022f4:	d10a      	bne.n	800230c <SPI_WaitFlagStateUntilTimeout.constprop.0+0x6c>
 80022f6:	68aa      	ldr	r2, [r5, #8]
 80022f8:	f5b2 4f00 	cmp.w	r2, #32768	; 0x8000
 80022fc:	d002      	beq.n	8002304 <SPI_WaitFlagStateUntilTimeout.constprop.0+0x64>
 80022fe:	f5b2 6f80 	cmp.w	r2, #1024	; 0x400
 8002302:	d103      	bne.n	800230c <SPI_WaitFlagStateUntilTimeout.constprop.0+0x6c>
 8002304:	681a      	ldr	r2, [r3, #0]
 8002306:	f022 0240 	bic.w	r2, r2, #64	; 0x40
 800230a:	601a      	str	r2, [r3, #0]
 800230c:	6aaa      	ldr	r2, [r5, #40]	; 0x28
 800230e:	f5b2 5f00 	cmp.w	r2, #8192	; 0x2000
 8002312:	d107      	bne.n	8002324 <SPI_WaitFlagStateUntilTimeout.constprop.0+0x84>
 8002314:	681a      	ldr	r2, [r3, #0]
 8002316:	f422 5200 	bic.w	r2, r2, #8192	; 0x2000
 800231a:	601a      	str	r2, [r3, #0]
 800231c:	681a      	ldr	r2, [r3, #0]
 800231e:	f442 5200 	orr.w	r2, r2, #8192	; 0x2000
 8002322:	601a      	str	r2, [r3, #0]
 8002324:	2301      	movs	r3, #1
 8002326:	f885 3051 	strb.w	r3, [r5, #81]	; 0x51
 800232a:	2300      	movs	r3, #0
 800232c:	f885 3050 	strb.w	r3, [r5, #80]	; 0x50
 8002330:	2003      	movs	r0, #3
 8002332:	b002      	add	sp, #8
 8002334:	e8bd 81f0 	ldmia.w	sp!, {r4, r5, r6, r7, r8, pc}
 8002338:	9b01      	ldr	r3, [sp, #4]
 800233a:	2b00      	cmp	r3, #0
 800233c:	9b01      	ldr	r3, [sp, #4]
 800233e:	bf08      	it	eq
 8002340:	2400      	moveq	r4, #0
 8002342:	3b01      	subs	r3, #1
 8002344:	e7be      	b.n	80022c4 <SPI_WaitFlagStateUntilTimeout.constprop.0+0x24>
 8002346:	bf00      	nop
 8002348:	20000010 	.word	0x20000010

0800234c <SPI_EndRxTxTransaction>:
 800234c:	b537      	push	{r0, r1, r2, r4, r5, lr}
 800234e:	4613      	mov	r3, r2
 8002350:	4a12      	ldr	r2, [pc, #72]	; (800239c <SPI_EndRxTxTransaction+0x50>)
 8002352:	6815      	ldr	r5, [r2, #0]
 8002354:	4a12      	ldr	r2, [pc, #72]	; (80023a0 <SPI_EndRxTxTransaction+0x54>)
 8002356:	fbb5 f5f2 	udiv	r5, r5, r2
 800235a:	f44f 727a 	mov.w	r2, #1000	; 0x3e8
 800235e:	4355      	muls	r5, r2
 8002360:	6842      	ldr	r2, [r0, #4]
 8002362:	9501      	str	r5, [sp, #4]
 8002364:	f5b2 7f82 	cmp.w	r2, #260	; 0x104
 8002368:	4604      	mov	r4, r0
 800236a:	d10b      	bne.n	8002384 <SPI_EndRxTxTransaction+0x38>
 800236c:	460a      	mov	r2, r1
 800236e:	2180      	movs	r1, #128	; 0x80
 8002370:	f7ff ff96 	bl	80022a0 <SPI_WaitFlagStateUntilTimeout.constprop.0>
 8002374:	b178      	cbz	r0, 8002396 <SPI_EndRxTxTransaction+0x4a>
 8002376:	6d63      	ldr	r3, [r4, #84]	; 0x54
 8002378:	f043 0320 	orr.w	r3, r3, #32
 800237c:	6563      	str	r3, [r4, #84]	; 0x54
 800237e:	2003      	movs	r0, #3
 8002380:	b003      	add	sp, #12
 8002382:	bd30      	pop	{r4, r5, pc}
 8002384:	9b01      	ldr	r3, [sp, #4]
 8002386:	b133      	cbz	r3, 8002396 <SPI_EndRxTxTransaction+0x4a>
 8002388:	9b01      	ldr	r3, [sp, #4]
 800238a:	3b01      	subs	r3, #1
 800238c:	9301      	str	r3, [sp, #4]
 800238e:	6823      	ldr	r3, [r4, #0]
 8002390:	689b      	ldr	r3, [r3, #8]
 8002392:	061b      	lsls	r3, r3, #24
 8002394:	d4f6      	bmi.n	8002384 <SPI_EndRxTxTransaction+0x38>
 8002396:	2000      	movs	r0, #0
 8002398:	e7f2      	b.n	8002380 <SPI_EndRxTxTransaction+0x34>
 800239a:	bf00      	nop
 800239c:	20000010 	.word	0x20000010
 80023a0:	016e3600 	.word	0x016e3600

080023a4 <HAL_SPI_Init>:
 80023a4:	b510      	push	{r4, lr}
 80023a6:	4604      	mov	r4, r0
 80023a8:	2800      	cmp	r0, #0
 80023aa:	d055      	beq.n	8002458 <HAL_SPI_Init+0xb4>
 80023ac:	6a43      	ldr	r3, [r0, #36]	; 0x24
 80023ae:	2b00      	cmp	r3, #0
 80023b0:	d14e      	bne.n	8002450 <HAL_SPI_Init+0xac>
 80023b2:	6842      	ldr	r2, [r0, #4]
 80023b4:	f5b2 7f82 	cmp.w	r2, #260	; 0x104
 80023b8:	d000      	beq.n	80023bc <HAL_SPI_Init+0x18>
 80023ba:	61c3      	str	r3, [r0, #28]
 80023bc:	2300      	movs	r3, #0
 80023be:	62a3      	str	r3, [r4, #40]	; 0x28
 80023c0:	f894 3051 	ldrb.w	r3, [r4, #81]	; 0x51
 80023c4:	f003 02ff 	and.w	r2, r3, #255	; 0xff
 80023c8:	b923      	cbnz	r3, 80023d4 <HAL_SPI_Init+0x30>
 80023ca:	f884 2050 	strb.w	r2, [r4, #80]	; 0x50
 80023ce:	4620      	mov	r0, r4
 80023d0:	f7fe feb8 	bl	8001144 <HAL_SPI_MspInit>
 80023d4:	6821      	ldr	r1, [r4, #0]
 80023d6:	68a0      	ldr	r0, [r4, #8]
 80023d8:	69a2      	ldr	r2, [r4, #24]
 80023da:	2302      	movs	r3, #2
 80023dc:	f884 3051 	strb.w	r3, [r4, #81]	; 0x51
 80023e0:	680b      	ldr	r3, [r1, #0]
 80023e2:	f023 0340 	bic.w	r3, r3, #64	; 0x40
 80023e6:	600b      	str	r3, [r1, #0]
 80023e8:	6863      	ldr	r3, [r4, #4]
 80023ea:	f400 4004 	and.w	r0, r0, #33792	; 0x8400
 80023ee:	f403 7382 	and.w	r3, r3, #260	; 0x104
 80023f2:	4303      	orrs	r3, r0
 80023f4:	68e0      	ldr	r0, [r4, #12]
 80023f6:	f400 6000 	and.w	r0, r0, #2048	; 0x800
 80023fa:	4303      	orrs	r3, r0
 80023fc:	6920      	ldr	r0, [r4, #16]
 80023fe:	f000 0002 	and.w	r0, r0, #2
 8002402:	4303      	orrs	r3, r0
 8002404:	6960      	ldr	r0, [r4, #20]
 8002406:	f000 0001 	and.w	r0, r0, #1
 800240a:	4303      	orrs	r3, r0
 800240c:	f402 7000 	and.w	r0, r2, #512	; 0x200
 8002410:	4303      	orrs	r3, r0
 8002412:	69e0      	ldr	r0, [r4, #28]
 8002414:	f000 0038 	and.w	r0, r0, #56	; 0x38
 8002418:	4303      	orrs	r3, r0
 800241a:	6a20      	ldr	r0, [r4, #32]
 800241c:	f000 0080 	and.w	r0, r0, #128	; 0x80
 8002420:	4303      	orrs	r3, r0
 8002422:	6aa0      	ldr	r0, [r4, #40]	; 0x28
 8002424:	f400 5000 	and.w	r0, r0, #8192	; 0x2000
 8002428:	4303      	orrs	r3, r0
 800242a:	600b      	str	r3, [r1, #0]
 800242c:	6a63      	ldr	r3, [r4, #36]	; 0x24
 800242e:	0c12      	lsrs	r2, r2, #16
 8002430:	f003 0310 	and.w	r3, r3, #16
 8002434:	f002 0204 	and.w	r2, r2, #4
 8002438:	431a      	orrs	r2, r3
 800243a:	604a      	str	r2, [r1, #4]
 800243c:	69cb      	ldr	r3, [r1, #28]
 800243e:	f423 6300 	bic.w	r3, r3, #2048	; 0x800
 8002442:	61cb      	str	r3, [r1, #28]
 8002444:	2000      	movs	r0, #0
 8002446:	2301      	movs	r3, #1
 8002448:	6560      	str	r0, [r4, #84]	; 0x54
 800244a:	f884 3051 	strb.w	r3, [r4, #81]	; 0x51
 800244e:	bd10      	pop	{r4, pc}
 8002450:	2300      	movs	r3, #0
 8002452:	e9c0 3304 	strd	r3, r3, [r0, #16]
 8002456:	e7b1      	b.n	80023bc <HAL_SPI_Init+0x18>
 8002458:	2001      	movs	r0, #1
 800245a:	e7f8      	b.n	800244e <HAL_SPI_Init+0xaa>

0800245c <HAL_SPI_TransmitReceive>:
 800245c:	e92d 43f7 	stmdb	sp!, {r0, r1, r2, r4, r5, r6, r7, r8, r9, lr}
 8002460:	461e      	mov	r6, r3
 8002462:	f890 3050 	ldrb.w	r3, [r0, #80]	; 0x50
 8002466:	f8dd 8028 	ldr.w	r8, [sp, #40]	; 0x28
 800246a:	2b01      	cmp	r3, #1
 800246c:	4604      	mov	r4, r0
 800246e:	460d      	mov	r5, r1
 8002470:	4691      	mov	r9, r2
 8002472:	f000 80e0 	beq.w	8002636 <HAL_SPI_TransmitReceive+0x1da>
 8002476:	2301      	movs	r3, #1
 8002478:	f880 3050 	strb.w	r3, [r0, #80]	; 0x50
 800247c:	f7ff f886 	bl	800158c <HAL_GetTick>
 8002480:	f894 3051 	ldrb.w	r3, [r4, #81]	; 0x51
 8002484:	6862      	ldr	r2, [r4, #4]
 8002486:	2b01      	cmp	r3, #1
 8002488:	4607      	mov	r7, r0
 800248a:	b2d9      	uxtb	r1, r3
 800248c:	d00a      	beq.n	80024a4 <HAL_SPI_TransmitReceive+0x48>
 800248e:	f5b2 7f82 	cmp.w	r2, #260	; 0x104
 8002492:	f040 80ce 	bne.w	8002632 <HAL_SPI_TransmitReceive+0x1d6>
 8002496:	68a3      	ldr	r3, [r4, #8]
 8002498:	2b00      	cmp	r3, #0
 800249a:	f040 80ca 	bne.w	8002632 <HAL_SPI_TransmitReceive+0x1d6>
 800249e:	2904      	cmp	r1, #4
 80024a0:	f040 80c7 	bne.w	8002632 <HAL_SPI_TransmitReceive+0x1d6>
 80024a4:	2d00      	cmp	r5, #0
 80024a6:	d03f      	beq.n	8002528 <HAL_SPI_TransmitReceive+0xcc>
 80024a8:	f1b9 0f00 	cmp.w	r9, #0
 80024ac:	d03c      	beq.n	8002528 <HAL_SPI_TransmitReceive+0xcc>
 80024ae:	2e00      	cmp	r6, #0
 80024b0:	d03a      	beq.n	8002528 <HAL_SPI_TransmitReceive+0xcc>
 80024b2:	f894 3051 	ldrb.w	r3, [r4, #81]	; 0x51
 80024b6:	f8c4 9038 	str.w	r9, [r4, #56]	; 0x38
 80024ba:	2b04      	cmp	r3, #4
 80024bc:	bf1c      	itt	ne
 80024be:	2305      	movne	r3, #5
 80024c0:	f884 3051 	strbne.w	r3, [r4, #81]	; 0x51
 80024c4:	2300      	movs	r3, #0
 80024c6:	6563      	str	r3, [r4, #84]	; 0x54
 80024c8:	e9c4 3310 	strd	r3, r3, [r4, #64]	; 0x40
 80024cc:	6823      	ldr	r3, [r4, #0]
 80024ce:	87e6      	strh	r6, [r4, #62]	; 0x3e
 80024d0:	86e6      	strh	r6, [r4, #54]	; 0x36
 80024d2:	6819      	ldr	r1, [r3, #0]
 80024d4:	87a6      	strh	r6, [r4, #60]	; 0x3c
 80024d6:	0649      	lsls	r1, r1, #25
 80024d8:	bf58      	it	pl
 80024da:	6819      	ldrpl	r1, [r3, #0]
 80024dc:	6325      	str	r5, [r4, #48]	; 0x30
 80024de:	bf58      	it	pl
 80024e0:	f041 0140 	orrpl.w	r1, r1, #64	; 0x40
 80024e4:	86a6      	strh	r6, [r4, #52]	; 0x34
 80024e6:	bf58      	it	pl
 80024e8:	6019      	strpl	r1, [r3, #0]
 80024ea:	68e1      	ldr	r1, [r4, #12]
 80024ec:	f5b1 6f00 	cmp.w	r1, #2048	; 0x800
 80024f0:	d151      	bne.n	8002596 <HAL_SPI_TransmitReceive+0x13a>
 80024f2:	b10a      	cbz	r2, 80024f8 <HAL_SPI_TransmitReceive+0x9c>
 80024f4:	2e01      	cmp	r6, #1
 80024f6:	d107      	bne.n	8002508 <HAL_SPI_TransmitReceive+0xac>
 80024f8:	f835 2b02 	ldrh.w	r2, [r5], #2
 80024fc:	60da      	str	r2, [r3, #12]
 80024fe:	8ee3      	ldrh	r3, [r4, #54]	; 0x36
 8002500:	6325      	str	r5, [r4, #48]	; 0x30
 8002502:	3b01      	subs	r3, #1
 8002504:	b29b      	uxth	r3, r3
 8002506:	86e3      	strh	r3, [r4, #54]	; 0x36
 8002508:	2501      	movs	r5, #1
 800250a:	8ee3      	ldrh	r3, [r4, #54]	; 0x36
 800250c:	b29b      	uxth	r3, r3
 800250e:	b96b      	cbnz	r3, 800252c <HAL_SPI_TransmitReceive+0xd0>
 8002510:	8fe3      	ldrh	r3, [r4, #62]	; 0x3e
 8002512:	b29b      	uxth	r3, r3
 8002514:	b953      	cbnz	r3, 800252c <HAL_SPI_TransmitReceive+0xd0>
 8002516:	463a      	mov	r2, r7
 8002518:	4641      	mov	r1, r8
 800251a:	4620      	mov	r0, r4
 800251c:	f7ff ff16 	bl	800234c <SPI_EndRxTxTransaction>
 8002520:	2800      	cmp	r0, #0
 8002522:	d07b      	beq.n	800261c <HAL_SPI_TransmitReceive+0x1c0>
 8002524:	2320      	movs	r3, #32
 8002526:	6563      	str	r3, [r4, #84]	; 0x54
 8002528:	2001      	movs	r0, #1
 800252a:	e02b      	b.n	8002584 <HAL_SPI_TransmitReceive+0x128>
 800252c:	6821      	ldr	r1, [r4, #0]
 800252e:	688b      	ldr	r3, [r1, #8]
 8002530:	079a      	lsls	r2, r3, #30
 8002532:	d50d      	bpl.n	8002550 <HAL_SPI_TransmitReceive+0xf4>
 8002534:	8ee3      	ldrh	r3, [r4, #54]	; 0x36
 8002536:	b29b      	uxth	r3, r3
 8002538:	b153      	cbz	r3, 8002550 <HAL_SPI_TransmitReceive+0xf4>
 800253a:	b14d      	cbz	r5, 8002550 <HAL_SPI_TransmitReceive+0xf4>
 800253c:	6b23      	ldr	r3, [r4, #48]	; 0x30
 800253e:	f833 2b02 	ldrh.w	r2, [r3], #2
 8002542:	60ca      	str	r2, [r1, #12]
 8002544:	6323      	str	r3, [r4, #48]	; 0x30
 8002546:	8ee3      	ldrh	r3, [r4, #54]	; 0x36
 8002548:	3b01      	subs	r3, #1
 800254a:	b29b      	uxth	r3, r3
 800254c:	86e3      	strh	r3, [r4, #54]	; 0x36
 800254e:	2500      	movs	r5, #0
 8002550:	688a      	ldr	r2, [r1, #8]
 8002552:	f012 0201 	ands.w	r2, r2, #1
 8002556:	d00c      	beq.n	8002572 <HAL_SPI_TransmitReceive+0x116>
 8002558:	8fe3      	ldrh	r3, [r4, #62]	; 0x3e
 800255a:	b29b      	uxth	r3, r3
 800255c:	b14b      	cbz	r3, 8002572 <HAL_SPI_TransmitReceive+0x116>
 800255e:	6ba3      	ldr	r3, [r4, #56]	; 0x38
 8002560:	68c9      	ldr	r1, [r1, #12]
 8002562:	f823 1b02 	strh.w	r1, [r3], #2
 8002566:	63a3      	str	r3, [r4, #56]	; 0x38
 8002568:	8fe3      	ldrh	r3, [r4, #62]	; 0x3e
 800256a:	3b01      	subs	r3, #1
 800256c:	b29b      	uxth	r3, r3
 800256e:	87e3      	strh	r3, [r4, #62]	; 0x3e
 8002570:	4615      	mov	r5, r2
 8002572:	f7ff f80b 	bl	800158c <HAL_GetTick>
 8002576:	1bc0      	subs	r0, r0, r7
 8002578:	4540      	cmp	r0, r8
 800257a:	d3c6      	bcc.n	800250a <HAL_SPI_TransmitReceive+0xae>
 800257c:	f1b8 3fff 	cmp.w	r8, #4294967295
 8002580:	d0c3      	beq.n	800250a <HAL_SPI_TransmitReceive+0xae>
 8002582:	2003      	movs	r0, #3
 8002584:	2301      	movs	r3, #1
 8002586:	f884 3051 	strb.w	r3, [r4, #81]	; 0x51
 800258a:	2300      	movs	r3, #0
 800258c:	f884 3050 	strb.w	r3, [r4, #80]	; 0x50
 8002590:	b003      	add	sp, #12
 8002592:	e8bd 83f0 	ldmia.w	sp!, {r4, r5, r6, r7, r8, r9, pc}
 8002596:	b10a      	cbz	r2, 800259c <HAL_SPI_TransmitReceive+0x140>
 8002598:	2e01      	cmp	r6, #1
 800259a:	d108      	bne.n	80025ae <HAL_SPI_TransmitReceive+0x152>
 800259c:	782a      	ldrb	r2, [r5, #0]
 800259e:	731a      	strb	r2, [r3, #12]
 80025a0:	6b23      	ldr	r3, [r4, #48]	; 0x30
 80025a2:	3301      	adds	r3, #1
 80025a4:	6323      	str	r3, [r4, #48]	; 0x30
 80025a6:	8ee3      	ldrh	r3, [r4, #54]	; 0x36
 80025a8:	3b01      	subs	r3, #1
 80025aa:	b29b      	uxth	r3, r3
 80025ac:	86e3      	strh	r3, [r4, #54]	; 0x36
 80025ae:	2501      	movs	r5, #1
 80025b0:	8ee3      	ldrh	r3, [r4, #54]	; 0x36
 80025b2:	b29b      	uxth	r3, r3
 80025b4:	b91b      	cbnz	r3, 80025be <HAL_SPI_TransmitReceive+0x162>
 80025b6:	8fe3      	ldrh	r3, [r4, #62]	; 0x3e
 80025b8:	b29b      	uxth	r3, r3
 80025ba:	2b00      	cmp	r3, #0
 80025bc:	d0ab      	beq.n	8002516 <HAL_SPI_TransmitReceive+0xba>
 80025be:	6822      	ldr	r2, [r4, #0]
 80025c0:	6893      	ldr	r3, [r2, #8]
 80025c2:	079b      	lsls	r3, r3, #30
 80025c4:	d50e      	bpl.n	80025e4 <HAL_SPI_TransmitReceive+0x188>
 80025c6:	8ee3      	ldrh	r3, [r4, #54]	; 0x36
 80025c8:	b29b      	uxth	r3, r3
 80025ca:	b15b      	cbz	r3, 80025e4 <HAL_SPI_TransmitReceive+0x188>
 80025cc:	b155      	cbz	r5, 80025e4 <HAL_SPI_TransmitReceive+0x188>
 80025ce:	6b23      	ldr	r3, [r4, #48]	; 0x30
 80025d0:	781b      	ldrb	r3, [r3, #0]
 80025d2:	7313      	strb	r3, [r2, #12]
 80025d4:	6b23      	ldr	r3, [r4, #48]	; 0x30
 80025d6:	3301      	adds	r3, #1
 80025d8:	6323      	str	r3, [r4, #48]	; 0x30
 80025da:	8ee3      	ldrh	r3, [r4, #54]	; 0x36
 80025dc:	3b01      	subs	r3, #1
 80025de:	b29b      	uxth	r3, r3
 80025e0:	86e3      	strh	r3, [r4, #54]	; 0x36
 80025e2:	2500      	movs	r5, #0
 80025e4:	6822      	ldr	r2, [r4, #0]
 80025e6:	6891      	ldr	r1, [r2, #8]
 80025e8:	f011 0101 	ands.w	r1, r1, #1
 80025ec:	d00d      	beq.n	800260a <HAL_SPI_TransmitReceive+0x1ae>
 80025ee:	8fe3      	ldrh	r3, [r4, #62]	; 0x3e
 80025f0:	b29b      	uxth	r3, r3
 80025f2:	b153      	cbz	r3, 800260a <HAL_SPI_TransmitReceive+0x1ae>
 80025f4:	6ba3      	ldr	r3, [r4, #56]	; 0x38
 80025f6:	68d2      	ldr	r2, [r2, #12]
 80025f8:	701a      	strb	r2, [r3, #0]
 80025fa:	6ba3      	ldr	r3, [r4, #56]	; 0x38
 80025fc:	3301      	adds	r3, #1
 80025fe:	63a3      	str	r3, [r4, #56]	; 0x38
 8002600:	8fe3      	ldrh	r3, [r4, #62]	; 0x3e
 8002602:	3b01      	subs	r3, #1
 8002604:	b29b      	uxth	r3, r3
 8002606:	87e3      	strh	r3, [r4, #62]	; 0x3e
 8002608:	460d      	mov	r5, r1
 800260a:	f7fe ffbf 	bl	800158c <HAL_GetTick>
 800260e:	1bc0      	subs	r0, r0, r7
 8002610:	4540      	cmp	r0, r8
 8002612:	d3cd      	bcc.n	80025b0 <HAL_SPI_TransmitReceive+0x154>
 8002614:	f1b8 3fff 	cmp.w	r8, #4294967295
 8002618:	d0ca      	beq.n	80025b0 <HAL_SPI_TransmitReceive+0x154>
 800261a:	e7b2      	b.n	8002582 <HAL_SPI_TransmitReceive+0x126>
 800261c:	68a3      	ldr	r3, [r4, #8]
 800261e:	2b00      	cmp	r3, #0
 8002620:	d1b0      	bne.n	8002584 <HAL_SPI_TransmitReceive+0x128>
 8002622:	6823      	ldr	r3, [r4, #0]
 8002624:	9001      	str	r0, [sp, #4]
 8002626:	68da      	ldr	r2, [r3, #12]
 8002628:	9201      	str	r2, [sp, #4]
 800262a:	689b      	ldr	r3, [r3, #8]
 800262c:	9301      	str	r3, [sp, #4]
 800262e:	9b01      	ldr	r3, [sp, #4]
 8002630:	e7a8      	b.n	8002584 <HAL_SPI_TransmitReceive+0x128>
 8002632:	2002      	movs	r0, #2
 8002634:	e7a6      	b.n	8002584 <HAL_SPI_TransmitReceive+0x128>
 8002636:	2002      	movs	r0, #2
 8002638:	e7aa      	b.n	8002590 <HAL_SPI_TransmitReceive+0x134>
	...

0800263c <HAL_TIM_Base_Start>:
 800263c:	f890 303d 	ldrb.w	r3, [r0, #61]	; 0x3d
 8002640:	2b01      	cmp	r3, #1
 8002642:	d12c      	bne.n	800269e <HAL_TIM_Base_Start+0x62>
 8002644:	2302      	movs	r3, #2
 8002646:	4a17      	ldr	r2, [pc, #92]	; (80026a4 <HAL_TIM_Base_Start+0x68>)
 8002648:	f880 303d 	strb.w	r3, [r0, #61]	; 0x3d
 800264c:	6803      	ldr	r3, [r0, #0]
 800264e:	4293      	cmp	r3, r2
 8002650:	d01a      	beq.n	8002688 <HAL_TIM_Base_Start+0x4c>
 8002652:	f1b3 4f80 	cmp.w	r3, #1073741824	; 0x40000000
 8002656:	d017      	beq.n	8002688 <HAL_TIM_Base_Start+0x4c>
 8002658:	f5a2 427c 	sub.w	r2, r2, #64512	; 0xfc00
 800265c:	4293      	cmp	r3, r2
 800265e:	d013      	beq.n	8002688 <HAL_TIM_Base_Start+0x4c>
 8002660:	f502 6280 	add.w	r2, r2, #1024	; 0x400
 8002664:	4293      	cmp	r3, r2
 8002666:	d00f      	beq.n	8002688 <HAL_TIM_Base_Start+0x4c>
 8002668:	f502 6280 	add.w	r2, r2, #1024	; 0x400
 800266c:	4293      	cmp	r3, r2
 800266e:	d00b      	beq.n	8002688 <HAL_TIM_Base_Start+0x4c>
 8002670:	f502 4278 	add.w	r2, r2, #63488	; 0xf800
 8002674:	4293      	cmp	r3, r2
 8002676:	d007      	beq.n	8002688 <HAL_TIM_Base_Start+0x4c>
 8002678:	f502 5270 	add.w	r2, r2, #15360	; 0x3c00
 800267c:	4293      	cmp	r3, r2
 800267e:	d003      	beq.n	8002688 <HAL_TIM_Base_Start+0x4c>
 8002680:	f5a2 3294 	sub.w	r2, r2, #75776	; 0x12800
 8002684:	4293      	cmp	r3, r2
 8002686:	d104      	bne.n	8002692 <HAL_TIM_Base_Start+0x56>
 8002688:	689a      	ldr	r2, [r3, #8]
 800268a:	f002 0207 	and.w	r2, r2, #7
 800268e:	2a06      	cmp	r2, #6
 8002690:	d003      	beq.n	800269a <HAL_TIM_Base_Start+0x5e>
 8002692:	681a      	ldr	r2, [r3, #0]
 8002694:	f042 0201 	orr.w	r2, r2, #1
 8002698:	601a      	str	r2, [r3, #0]
 800269a:	2000      	movs	r0, #0
 800269c:	4770      	bx	lr
 800269e:	2001      	movs	r0, #1
 80026a0:	4770      	bx	lr
 80026a2:	bf00      	nop
 80026a4:	40010000 	.word	0x40010000

080026a8 <HAL_TIM_Base_Start_IT>:
 80026a8:	f890 303d 	ldrb.w	r3, [r0, #61]	; 0x3d
 80026ac:	2b01      	cmp	r3, #1
 80026ae:	d130      	bne.n	8002712 <HAL_TIM_Base_Start_IT+0x6a>
 80026b0:	2302      	movs	r3, #2
 80026b2:	f880 303d 	strb.w	r3, [r0, #61]	; 0x3d
 80026b6:	6803      	ldr	r3, [r0, #0]
 80026b8:	68da      	ldr	r2, [r3, #12]
 80026ba:	f042 0201 	orr.w	r2, r2, #1
 80026be:	60da      	str	r2, [r3, #12]
 80026c0:	4a15      	ldr	r2, [pc, #84]	; (8002718 <HAL_TIM_Base_Start_IT+0x70>)
 80026c2:	4293      	cmp	r3, r2
 80026c4:	d01a      	beq.n	80026fc <HAL_TIM_Base_Start_IT+0x54>
 80026c6:	f1b3 4f80 	cmp.w	r3, #1073741824	; 0x40000000
 80026ca:	d017      	beq.n	80026fc <HAL_TIM_Base_Start_IT+0x54>
 80026cc:	f5a2 427c 	sub.w	r2, r2, #64512	; 0xfc00
 80026d0:	4293      	cmp	r3, r2
 80026d2:	d013      	beq.n	80026fc <HAL_TIM_Base_Start_IT+0x54>
 80026d4:	f502 6280 	add.w	r2, r2, #1024	; 0x400
 80026d8:	4293      	cmp	r3, r2
 80026da:	d00f      	beq.n	80026fc <HAL_TIM_Base_Start_IT+0x54>
 80026dc:	f502 6280 	add.w	r2, r2, #1024	; 0x400
 80026e0:	4293      	cmp	r3, r2
 80026e2:	d00b      	beq.n	80026fc <HAL_TIM_Base_Start_IT+0x54>
 80026e4:	f502 4278 	add.w	r2, r2, #63488	; 0xf800
 80026e8:	4293      	cmp	r3, r2
 80026ea:	d007      	beq.n	80026fc <HAL_TIM_Base_Start_IT+0x54>
 80026ec:	f502 5270 	add.w	r2, r2, #15360	; 0x3c00
 80026f0:	4293      	cmp	r3, r2
 80026f2:	d003      	beq.n	80026fc <HAL_TIM_Base_Start_IT+0x54>
 80026f4:	f5a2 3294 	sub.w	r2, r2, #75776	; 0x12800
 80026f8:	4293      	cmp	r3, r2
 80026fa:	d104      	bne.n	8002706 <HAL_TIM_Base_Start_IT+0x5e>
 80026fc:	689a      	ldr	r2, [r3, #8]
 80026fe:	f002 0207 	and.w	r2, r2, #7
 8002702:	2a06      	cmp	r2, #6
 8002704:	d003      	beq.n	800270e <HAL_TIM_Base_Start_IT+0x66>
 8002706:	681a      	ldr	r2, [r3, #0]
 8002708:	f042 0201 	orr.w	r2, r2, #1
 800270c:	601a      	str	r2, [r3, #0]
 800270e:	2000      	movs	r0, #0
 8002710:	4770      	bx	lr
 8002712:	2001      	movs	r0, #1
 8002714:	4770      	bx	lr
 8002716:	bf00      	nop
 8002718:	40010000 	.word	0x40010000

0800271c <HAL_TIM_OC_DelayElapsedCallback>:
 800271c:	4770      	bx	lr

0800271e <HAL_TIM_IC_CaptureCallback>:
 800271e:	4770      	bx	lr

08002720 <HAL_TIM_PWM_PulseFinishedCallback>:
 8002720:	4770      	bx	lr

08002722 <HAL_TIM_TriggerCallback>:
 8002722:	4770      	bx	lr

08002724 <HAL_TIM_IRQHandler>:
 8002724:	6803      	ldr	r3, [r0, #0]
 8002726:	691a      	ldr	r2, [r3, #16]
 8002728:	0791      	lsls	r1, r2, #30
 800272a:	b510      	push	{r4, lr}
 800272c:	4604      	mov	r4, r0
 800272e:	d50e      	bpl.n	800274e <HAL_TIM_IRQHandler+0x2a>
 8002730:	68da      	ldr	r2, [r3, #12]
 8002732:	0792      	lsls	r2, r2, #30
 8002734:	d50b      	bpl.n	800274e <HAL_TIM_IRQHandler+0x2a>
 8002736:	f06f 0202 	mvn.w	r2, #2
 800273a:	611a      	str	r2, [r3, #16]
 800273c:	2201      	movs	r2, #1
 800273e:	7702      	strb	r2, [r0, #28]
 8002740:	699b      	ldr	r3, [r3, #24]
 8002742:	079b      	lsls	r3, r3, #30
 8002744:	d077      	beq.n	8002836 <HAL_TIM_IRQHandler+0x112>
 8002746:	f7ff ffea 	bl	800271e <HAL_TIM_IC_CaptureCallback>
 800274a:	2300      	movs	r3, #0
 800274c:	7723      	strb	r3, [r4, #28]
 800274e:	6823      	ldr	r3, [r4, #0]
 8002750:	691a      	ldr	r2, [r3, #16]
 8002752:	0750      	lsls	r0, r2, #29
 8002754:	d510      	bpl.n	8002778 <HAL_TIM_IRQHandler+0x54>
 8002756:	68da      	ldr	r2, [r3, #12]
 8002758:	0751      	lsls	r1, r2, #29
 800275a:	d50d      	bpl.n	8002778 <HAL_TIM_IRQHandler+0x54>
 800275c:	f06f 0204 	mvn.w	r2, #4
 8002760:	611a      	str	r2, [r3, #16]
 8002762:	2202      	movs	r2, #2
 8002764:	7722      	strb	r2, [r4, #28]
 8002766:	699b      	ldr	r3, [r3, #24]
 8002768:	f413 7f40 	tst.w	r3, #768	; 0x300
 800276c:	4620      	mov	r0, r4
 800276e:	d068      	beq.n	8002842 <HAL_TIM_IRQHandler+0x11e>
 8002770:	f7ff ffd5 	bl	800271e <HAL_TIM_IC_CaptureCallback>
 8002774:	2300      	movs	r3, #0
 8002776:	7723      	strb	r3, [r4, #28]
 8002778:	6823      	ldr	r3, [r4, #0]
 800277a:	691a      	ldr	r2, [r3, #16]
 800277c:	0712      	lsls	r2, r2, #28
 800277e:	d50f      	bpl.n	80027a0 <HAL_TIM_IRQHandler+0x7c>
 8002780:	68da      	ldr	r2, [r3, #12]
 8002782:	0710      	lsls	r0, r2, #28
 8002784:	d50c      	bpl.n	80027a0 <HAL_TIM_IRQHandler+0x7c>
 8002786:	f06f 0208 	mvn.w	r2, #8
 800278a:	611a      	str	r2, [r3, #16]
 800278c:	2204      	movs	r2, #4
 800278e:	7722      	strb	r2, [r4, #28]
 8002790:	69db      	ldr	r3, [r3, #28]
 8002792:	0799      	lsls	r1, r3, #30
 8002794:	4620      	mov	r0, r4
 8002796:	d05a      	beq.n	800284e <HAL_TIM_IRQHandler+0x12a>
 8002798:	f7ff ffc1 	bl	800271e <HAL_TIM_IC_CaptureCallback>
 800279c:	2300      	movs	r3, #0
 800279e:	7723      	strb	r3, [r4, #28]
 80027a0:	6823      	ldr	r3, [r4, #0]
 80027a2:	691a      	ldr	r2, [r3, #16]
 80027a4:	06d2      	lsls	r2, r2, #27
 80027a6:	d510      	bpl.n	80027ca <HAL_TIM_IRQHandler+0xa6>
 80027a8:	68da      	ldr	r2, [r3, #12]
 80027aa:	06d0      	lsls	r0, r2, #27
 80027ac:	d50d      	bpl.n	80027ca <HAL_TIM_IRQHandler+0xa6>
 80027ae:	f06f 0210 	mvn.w	r2, #16
 80027b2:	611a      	str	r2, [r3, #16]
 80027b4:	2208      	movs	r2, #8
 80027b6:	7722      	strb	r2, [r4, #28]
 80027b8:	69db      	ldr	r3, [r3, #28]
 80027ba:	f413 7f40 	tst.w	r3, #768	; 0x300
 80027be:	4620      	mov	r0, r4
 80027c0:	d04b      	beq.n	800285a <HAL_TIM_IRQHandler+0x136>
 80027c2:	f7ff ffac 	bl	800271e <HAL_TIM_IC_CaptureCallback>
 80027c6:	2300      	movs	r3, #0
 80027c8:	7723      	strb	r3, [r4, #28]
 80027ca:	6823      	ldr	r3, [r4, #0]
 80027cc:	691a      	ldr	r2, [r3, #16]
 80027ce:	07d1      	lsls	r1, r2, #31
 80027d0:	d508      	bpl.n	80027e4 <HAL_TIM_IRQHandler+0xc0>
 80027d2:	68da      	ldr	r2, [r3, #12]
 80027d4:	07d2      	lsls	r2, r2, #31
 80027d6:	d505      	bpl.n	80027e4 <HAL_TIM_IRQHandler+0xc0>
 80027d8:	f06f 0201 	mvn.w	r2, #1
 80027dc:	611a      	str	r2, [r3, #16]
 80027de:	4620      	mov	r0, r4
 80027e0:	f7fe fc82 	bl	80010e8 <HAL_TIM_PeriodElapsedCallback>
 80027e4:	6823      	ldr	r3, [r4, #0]
 80027e6:	691a      	ldr	r2, [r3, #16]
 80027e8:	0610      	lsls	r0, r2, #24
 80027ea:	d508      	bpl.n	80027fe <HAL_TIM_IRQHandler+0xda>
 80027ec:	68da      	ldr	r2, [r3, #12]
 80027ee:	0611      	lsls	r1, r2, #24
 80027f0:	d505      	bpl.n	80027fe <HAL_TIM_IRQHandler+0xda>
 80027f2:	f06f 0280 	mvn.w	r2, #128	; 0x80
 80027f6:	611a      	str	r2, [r3, #16]
 80027f8:	4620      	mov	r0, r4
 80027fa:	f000 f9aa 	bl	8002b52 <HAL_TIMEx_BreakCallback>
 80027fe:	6823      	ldr	r3, [r4, #0]
 8002800:	691a      	ldr	r2, [r3, #16]
 8002802:	0652      	lsls	r2, r2, #25
 8002804:	d508      	bpl.n	8002818 <HAL_TIM_IRQHandler+0xf4>
 8002806:	68da      	ldr	r2, [r3, #12]
 8002808:	0650      	lsls	r0, r2, #25
 800280a:	d505      	bpl.n	8002818 <HAL_TIM_IRQHandler+0xf4>
 800280c:	f06f 0240 	mvn.w	r2, #64	; 0x40
 8002810:	611a      	str	r2, [r3, #16]
 8002812:	4620      	mov	r0, r4
 8002814:	f7ff ff85 	bl	8002722 <HAL_TIM_TriggerCallback>
 8002818:	6823      	ldr	r3, [r4, #0]
 800281a:	691a      	ldr	r2, [r3, #16]
 800281c:	0691      	lsls	r1, r2, #26
 800281e:	d522      	bpl.n	8002866 <HAL_TIM_IRQHandler+0x142>
 8002820:	68da      	ldr	r2, [r3, #12]
 8002822:	0692      	lsls	r2, r2, #26
 8002824:	d51f      	bpl.n	8002866 <HAL_TIM_IRQHandler+0x142>
 8002826:	f06f 0220 	mvn.w	r2, #32
 800282a:	4620      	mov	r0, r4
 800282c:	611a      	str	r2, [r3, #16]
 800282e:	e8bd 4010 	ldmia.w	sp!, {r4, lr}
 8002832:	f000 b98d 	b.w	8002b50 <HAL_TIMEx_CommutCallback>
 8002836:	f7ff ff71 	bl	800271c <HAL_TIM_OC_DelayElapsedCallback>
 800283a:	4620      	mov	r0, r4
 800283c:	f7ff ff70 	bl	8002720 <HAL_TIM_PWM_PulseFinishedCallback>
 8002840:	e783      	b.n	800274a <HAL_TIM_IRQHandler+0x26>
 8002842:	f7ff ff6b 	bl	800271c <HAL_TIM_OC_DelayElapsedCallback>
 8002846:	4620      	mov	r0, r4
 8002848:	f7ff ff6a 	bl	8002720 <HAL_TIM_PWM_PulseFinishedCallback>
 800284c:	e792      	b.n	8002774 <HAL_TIM_IRQHandler+0x50>
 800284e:	f7ff ff65 	bl	800271c <HAL_TIM_OC_DelayElapsedCallback>
 8002852:	4620      	mov	r0, r4
 8002854:	f7ff ff64 	bl	8002720 <HAL_TIM_PWM_PulseFinishedCallback>
 8002858:	e7a0      	b.n	800279c <HAL_TIM_IRQHandler+0x78>
 800285a:	f7ff ff5f 	bl	800271c <HAL_TIM_OC_DelayElapsedCallback>
 800285e:	4620      	mov	r0, r4
 8002860:	f7ff ff5e 	bl	8002720 <HAL_TIM_PWM_PulseFinishedCallback>
 8002864:	e7af      	b.n	80027c6 <HAL_TIM_IRQHandler+0xa2>
 8002866:	bd10      	pop	{r4, pc}

08002868 <TIM_Base_SetConfig>:
 8002868:	4a30      	ldr	r2, [pc, #192]	; (800292c <TIM_Base_SetConfig+0xc4>)
 800286a:	6803      	ldr	r3, [r0, #0]
 800286c:	4290      	cmp	r0, r2
 800286e:	d012      	beq.n	8002896 <TIM_Base_SetConfig+0x2e>
 8002870:	f1b0 4f80 	cmp.w	r0, #1073741824	; 0x40000000
 8002874:	d00f      	beq.n	8002896 <TIM_Base_SetConfig+0x2e>
 8002876:	f5a2 427c 	sub.w	r2, r2, #64512	; 0xfc00
 800287a:	4290      	cmp	r0, r2
 800287c:	d00b      	beq.n	8002896 <TIM_Base_SetConfig+0x2e>
 800287e:	f502 6280 	add.w	r2, r2, #1024	; 0x400
 8002882:	4290      	cmp	r0, r2
 8002884:	d007      	beq.n	8002896 <TIM_Base_SetConfig+0x2e>
 8002886:	f502 6280 	add.w	r2, r2, #1024	; 0x400
 800288a:	4290      	cmp	r0, r2
 800288c:	d003      	beq.n	8002896 <TIM_Base_SetConfig+0x2e>
 800288e:	f502 4278 	add.w	r2, r2, #63488	; 0xf800
 8002892:	4290      	cmp	r0, r2
 8002894:	d119      	bne.n	80028ca <TIM_Base_SetConfig+0x62>
 8002896:	684a      	ldr	r2, [r1, #4]
 8002898:	f023 0370 	bic.w	r3, r3, #112	; 0x70
 800289c:	4313      	orrs	r3, r2
 800289e:	4a23      	ldr	r2, [pc, #140]	; (800292c <TIM_Base_SetConfig+0xc4>)
 80028a0:	4290      	cmp	r0, r2
 80028a2:	d029      	beq.n	80028f8 <TIM_Base_SetConfig+0x90>
 80028a4:	f1b0 4f80 	cmp.w	r0, #1073741824	; 0x40000000
 80028a8:	d026      	beq.n	80028f8 <TIM_Base_SetConfig+0x90>
 80028aa:	f5a2 427c 	sub.w	r2, r2, #64512	; 0xfc00
 80028ae:	4290      	cmp	r0, r2
 80028b0:	d022      	beq.n	80028f8 <TIM_Base_SetConfig+0x90>
 80028b2:	f502 6280 	add.w	r2, r2, #1024	; 0x400
 80028b6:	4290      	cmp	r0, r2
 80028b8:	d01e      	beq.n	80028f8 <TIM_Base_SetConfig+0x90>
 80028ba:	f502 6280 	add.w	r2, r2, #1024	; 0x400
 80028be:	4290      	cmp	r0, r2
 80028c0:	d01a      	beq.n	80028f8 <TIM_Base_SetConfig+0x90>
 80028c2:	f502 4278 	add.w	r2, r2, #63488	; 0xf800
 80028c6:	4290      	cmp	r0, r2
 80028c8:	d016      	beq.n	80028f8 <TIM_Base_SetConfig+0x90>
 80028ca:	4a19      	ldr	r2, [pc, #100]	; (8002930 <TIM_Base_SetConfig+0xc8>)
 80028cc:	4290      	cmp	r0, r2
 80028ce:	d013      	beq.n	80028f8 <TIM_Base_SetConfig+0x90>
 80028d0:	f502 6280 	add.w	r2, r2, #1024	; 0x400
 80028d4:	4290      	cmp	r0, r2
 80028d6:	d00f      	beq.n	80028f8 <TIM_Base_SetConfig+0x90>
 80028d8:	f502 6280 	add.w	r2, r2, #1024	; 0x400
 80028dc:	4290      	cmp	r0, r2
 80028de:	d00b      	beq.n	80028f8 <TIM_Base_SetConfig+0x90>
 80028e0:	f5a2 3298 	sub.w	r2, r2, #77824	; 0x13000
 80028e4:	4290      	cmp	r0, r2
 80028e6:	d007      	beq.n	80028f8 <TIM_Base_SetConfig+0x90>
 80028e8:	f502 6280 	add.w	r2, r2, #1024	; 0x400
 80028ec:	4290      	cmp	r0, r2
 80028ee:	d003      	beq.n	80028f8 <TIM_Base_SetConfig+0x90>
 80028f0:	f502 6280 	add.w	r2, r2, #1024	; 0x400
 80028f4:	4290      	cmp	r0, r2
 80028f6:	d103      	bne.n	8002900 <TIM_Base_SetConfig+0x98>
 80028f8:	68ca      	ldr	r2, [r1, #12]
 80028fa:	f423 7340 	bic.w	r3, r3, #768	; 0x300
 80028fe:	4313      	orrs	r3, r2
 8002900:	694a      	ldr	r2, [r1, #20]
 8002902:	f023 0380 	bic.w	r3, r3, #128	; 0x80
 8002906:	4313      	orrs	r3, r2
 8002908:	6003      	str	r3, [r0, #0]
 800290a:	688b      	ldr	r3, [r1, #8]
 800290c:	62c3      	str	r3, [r0, #44]	; 0x2c
 800290e:	680b      	ldr	r3, [r1, #0]
 8002910:	6283      	str	r3, [r0, #40]	; 0x28
 8002912:	4b06      	ldr	r3, [pc, #24]	; (800292c <TIM_Base_SetConfig+0xc4>)
 8002914:	4298      	cmp	r0, r3
 8002916:	d003      	beq.n	8002920 <TIM_Base_SetConfig+0xb8>
 8002918:	f503 6380 	add.w	r3, r3, #1024	; 0x400
 800291c:	4298      	cmp	r0, r3
 800291e:	d101      	bne.n	8002924 <TIM_Base_SetConfig+0xbc>
 8002920:	690b      	ldr	r3, [r1, #16]
 8002922:	6303      	str	r3, [r0, #48]	; 0x30
 8002924:	2301      	movs	r3, #1
 8002926:	6143      	str	r3, [r0, #20]
 8002928:	4770      	bx	lr
 800292a:	bf00      	nop
 800292c:	40010000 	.word	0x40010000
 8002930:	40014000 	.word	0x40014000

08002934 <HAL_TIM_Base_Init>:
 8002934:	b510      	push	{r4, lr}
 8002936:	4604      	mov	r4, r0
 8002938:	b330      	cbz	r0, 8002988 <HAL_TIM_Base_Init+0x54>
 800293a:	f890 303d 	ldrb.w	r3, [r0, #61]	; 0x3d
 800293e:	f003 02ff 	and.w	r2, r3, #255	; 0xff
 8002942:	b91b      	cbnz	r3, 800294c <HAL_TIM_Base_Init+0x18>
 8002944:	f880 203c 	strb.w	r2, [r0, #60]	; 0x3c
 8002948:	f7fe fd40 	bl	80013cc <HAL_TIM_Base_MspInit>
 800294c:	2302      	movs	r3, #2
 800294e:	6820      	ldr	r0, [r4, #0]
 8002950:	f884 303d 	strb.w	r3, [r4, #61]	; 0x3d
 8002954:	1d21      	adds	r1, r4, #4
 8002956:	f7ff ff87 	bl	8002868 <TIM_Base_SetConfig>
 800295a:	2301      	movs	r3, #1
 800295c:	f884 3046 	strb.w	r3, [r4, #70]	; 0x46
 8002960:	2000      	movs	r0, #0
 8002962:	f884 303e 	strb.w	r3, [r4, #62]	; 0x3e
 8002966:	f884 303f 	strb.w	r3, [r4, #63]	; 0x3f
 800296a:	f884 3040 	strb.w	r3, [r4, #64]	; 0x40
 800296e:	f884 3041 	strb.w	r3, [r4, #65]	; 0x41
 8002972:	f884 3042 	strb.w	r3, [r4, #66]	; 0x42
 8002976:	f884 3043 	strb.w	r3, [r4, #67]	; 0x43
 800297a:	f884 3044 	strb.w	r3, [r4, #68]	; 0x44
 800297e:	f884 3045 	strb.w	r3, [r4, #69]	; 0x45
 8002982:	f884 303d 	strb.w	r3, [r4, #61]	; 0x3d
 8002986:	bd10      	pop	{r4, pc}
 8002988:	2001      	movs	r0, #1
 800298a:	e7fc      	b.n	8002986 <HAL_TIM_Base_Init+0x52>

0800298c <TIM_ETR_SetConfig>:
 800298c:	b510      	push	{r4, lr}
 800298e:	6884      	ldr	r4, [r0, #8]
 8002990:	4311      	orrs	r1, r2
 8002992:	f424 447f 	bic.w	r4, r4, #65280	; 0xff00
 8002996:	ea41 2303 	orr.w	r3, r1, r3, lsl #8
 800299a:	4323      	orrs	r3, r4
 800299c:	6083      	str	r3, [r0, #8]
 800299e:	bd10      	pop	{r4, pc}

080029a0 <HAL_TIM_ConfigClockSource>:
 80029a0:	b538      	push	{r3, r4, r5, lr}
 80029a2:	f890 303c 	ldrb.w	r3, [r0, #60]	; 0x3c
 80029a6:	2b01      	cmp	r3, #1
 80029a8:	4604      	mov	r4, r0
 80029aa:	f04f 0302 	mov.w	r3, #2
 80029ae:	f000 808e 	beq.w	8002ace <HAL_TIM_ConfigClockSource+0x12e>
 80029b2:	2201      	movs	r2, #1
 80029b4:	f880 303d 	strb.w	r3, [r0, #61]	; 0x3d
 80029b8:	f880 203c 	strb.w	r2, [r0, #60]	; 0x3c
 80029bc:	6800      	ldr	r0, [r0, #0]
 80029be:	6883      	ldr	r3, [r0, #8]
 80029c0:	f423 437f 	bic.w	r3, r3, #65280	; 0xff00
 80029c4:	f023 0377 	bic.w	r3, r3, #119	; 0x77
 80029c8:	6083      	str	r3, [r0, #8]
 80029ca:	680b      	ldr	r3, [r1, #0]
 80029cc:	2b60      	cmp	r3, #96	; 0x60
 80029ce:	d04f      	beq.n	8002a70 <HAL_TIM_ConfigClockSource+0xd0>
 80029d0:	d832      	bhi.n	8002a38 <HAL_TIM_ConfigClockSource+0x98>
 80029d2:	2b40      	cmp	r3, #64	; 0x40
 80029d4:	d064      	beq.n	8002aa0 <HAL_TIM_ConfigClockSource+0x100>
 80029d6:	d816      	bhi.n	8002a06 <HAL_TIM_ConfigClockSource+0x66>
 80029d8:	2b20      	cmp	r3, #32
 80029da:	d00d      	beq.n	80029f8 <HAL_TIM_ConfigClockSource+0x58>
 80029dc:	d80a      	bhi.n	80029f4 <HAL_TIM_ConfigClockSource+0x54>
 80029de:	f033 0110 	bics.w	r1, r3, #16
 80029e2:	d009      	beq.n	80029f8 <HAL_TIM_ConfigClockSource+0x58>
 80029e4:	2301      	movs	r3, #1
 80029e6:	f884 303d 	strb.w	r3, [r4, #61]	; 0x3d
 80029ea:	2300      	movs	r3, #0
 80029ec:	f884 303c 	strb.w	r3, [r4, #60]	; 0x3c
 80029f0:	4610      	mov	r0, r2
 80029f2:	bd38      	pop	{r3, r4, r5, pc}
 80029f4:	2b30      	cmp	r3, #48	; 0x30
 80029f6:	d1f5      	bne.n	80029e4 <HAL_TIM_ConfigClockSource+0x44>
 80029f8:	6882      	ldr	r2, [r0, #8]
 80029fa:	f022 0270 	bic.w	r2, r2, #112	; 0x70
 80029fe:	4313      	orrs	r3, r2
 8002a00:	f043 0307 	orr.w	r3, r3, #7
 8002a04:	e028      	b.n	8002a58 <HAL_TIM_ConfigClockSource+0xb8>
 8002a06:	2b50      	cmp	r3, #80	; 0x50
 8002a08:	d1ec      	bne.n	80029e4 <HAL_TIM_ConfigClockSource+0x44>
 8002a0a:	684a      	ldr	r2, [r1, #4]
 8002a0c:	68cd      	ldr	r5, [r1, #12]
 8002a0e:	6a01      	ldr	r1, [r0, #32]
 8002a10:	6a03      	ldr	r3, [r0, #32]
 8002a12:	f023 0301 	bic.w	r3, r3, #1
 8002a16:	6203      	str	r3, [r0, #32]
 8002a18:	6983      	ldr	r3, [r0, #24]
 8002a1a:	f021 010a 	bic.w	r1, r1, #10
 8002a1e:	f023 03f0 	bic.w	r3, r3, #240	; 0xf0
 8002a22:	ea43 1305 	orr.w	r3, r3, r5, lsl #4
 8002a26:	430a      	orrs	r2, r1
 8002a28:	6183      	str	r3, [r0, #24]
 8002a2a:	6202      	str	r2, [r0, #32]
 8002a2c:	6883      	ldr	r3, [r0, #8]
 8002a2e:	f023 0370 	bic.w	r3, r3, #112	; 0x70
 8002a32:	f043 0357 	orr.w	r3, r3, #87	; 0x57
 8002a36:	e00f      	b.n	8002a58 <HAL_TIM_ConfigClockSource+0xb8>
 8002a38:	f5b3 5f80 	cmp.w	r3, #4096	; 0x1000
 8002a3c:	d00d      	beq.n	8002a5a <HAL_TIM_ConfigClockSource+0xba>
 8002a3e:	f5b3 5f00 	cmp.w	r3, #8192	; 0x2000
 8002a42:	d00c      	beq.n	8002a5e <HAL_TIM_ConfigClockSource+0xbe>
 8002a44:	2b70      	cmp	r3, #112	; 0x70
 8002a46:	d1cd      	bne.n	80029e4 <HAL_TIM_ConfigClockSource+0x44>
 8002a48:	68cb      	ldr	r3, [r1, #12]
 8002a4a:	e9d1 2101 	ldrd	r2, r1, [r1, #4]
 8002a4e:	f7ff ff9d 	bl	800298c <TIM_ETR_SetConfig>
 8002a52:	6883      	ldr	r3, [r0, #8]
 8002a54:	f043 0377 	orr.w	r3, r3, #119	; 0x77
 8002a58:	6083      	str	r3, [r0, #8]
 8002a5a:	2200      	movs	r2, #0
 8002a5c:	e7c2      	b.n	80029e4 <HAL_TIM_ConfigClockSource+0x44>
 8002a5e:	68cb      	ldr	r3, [r1, #12]
 8002a60:	e9d1 2101 	ldrd	r2, r1, [r1, #4]
 8002a64:	f7ff ff92 	bl	800298c <TIM_ETR_SetConfig>
 8002a68:	6883      	ldr	r3, [r0, #8]
 8002a6a:	f443 4380 	orr.w	r3, r3, #16384	; 0x4000
 8002a6e:	e7f3      	b.n	8002a58 <HAL_TIM_ConfigClockSource+0xb8>
 8002a70:	6a03      	ldr	r3, [r0, #32]
 8002a72:	684d      	ldr	r5, [r1, #4]
 8002a74:	68c9      	ldr	r1, [r1, #12]
 8002a76:	f023 0310 	bic.w	r3, r3, #16
 8002a7a:	6203      	str	r3, [r0, #32]
 8002a7c:	6982      	ldr	r2, [r0, #24]
 8002a7e:	6a03      	ldr	r3, [r0, #32]
 8002a80:	f422 4270 	bic.w	r2, r2, #61440	; 0xf000
 8002a84:	f023 03a0 	bic.w	r3, r3, #160	; 0xa0
 8002a88:	ea43 1305 	orr.w	r3, r3, r5, lsl #4
 8002a8c:	ea42 3201 	orr.w	r2, r2, r1, lsl #12
 8002a90:	6182      	str	r2, [r0, #24]
 8002a92:	6203      	str	r3, [r0, #32]
 8002a94:	6883      	ldr	r3, [r0, #8]
 8002a96:	f023 0370 	bic.w	r3, r3, #112	; 0x70
 8002a9a:	f043 0367 	orr.w	r3, r3, #103	; 0x67
 8002a9e:	e7db      	b.n	8002a58 <HAL_TIM_ConfigClockSource+0xb8>
 8002aa0:	684a      	ldr	r2, [r1, #4]
 8002aa2:	68cd      	ldr	r5, [r1, #12]
 8002aa4:	6a01      	ldr	r1, [r0, #32]
 8002aa6:	6a03      	ldr	r3, [r0, #32]
 8002aa8:	f023 0301 	bic.w	r3, r3, #1
 8002aac:	6203      	str	r3, [r0, #32]
 8002aae:	6983      	ldr	r3, [r0, #24]
 8002ab0:	f021 010a 	bic.w	r1, r1, #10
 8002ab4:	f023 03f0 	bic.w	r3, r3, #240	; 0xf0
 8002ab8:	ea43 1305 	orr.w	r3, r3, r5, lsl #4
 8002abc:	430a      	orrs	r2, r1
 8002abe:	6183      	str	r3, [r0, #24]
 8002ac0:	6202      	str	r2, [r0, #32]
 8002ac2:	6883      	ldr	r3, [r0, #8]
 8002ac4:	f023 0370 	bic.w	r3, r3, #112	; 0x70
 8002ac8:	f043 0347 	orr.w	r3, r3, #71	; 0x47
 8002acc:	e7c4      	b.n	8002a58 <HAL_TIM_ConfigClockSource+0xb8>
 8002ace:	461a      	mov	r2, r3
 8002ad0:	e78e      	b.n	80029f0 <HAL_TIM_ConfigClockSource+0x50>
	...

08002ad4 <HAL_TIMEx_MasterConfigSynchronization>:
 8002ad4:	b530      	push	{r4, r5, lr}
 8002ad6:	f890 303c 	ldrb.w	r3, [r0, #60]	; 0x3c
 8002ada:	2b01      	cmp	r3, #1
 8002adc:	f04f 0302 	mov.w	r3, #2
 8002ae0:	d032      	beq.n	8002b48 <HAL_TIMEx_MasterConfigSynchronization+0x74>
 8002ae2:	f880 303d 	strb.w	r3, [r0, #61]	; 0x3d
 8002ae6:	6803      	ldr	r3, [r0, #0]
 8002ae8:	680d      	ldr	r5, [r1, #0]
 8002aea:	685c      	ldr	r4, [r3, #4]
 8002aec:	689a      	ldr	r2, [r3, #8]
 8002aee:	f024 0470 	bic.w	r4, r4, #112	; 0x70
 8002af2:	432c      	orrs	r4, r5
 8002af4:	605c      	str	r4, [r3, #4]
 8002af6:	4c15      	ldr	r4, [pc, #84]	; (8002b4c <HAL_TIMEx_MasterConfigSynchronization+0x78>)
 8002af8:	42a3      	cmp	r3, r4
 8002afa:	d01a      	beq.n	8002b32 <HAL_TIMEx_MasterConfigSynchronization+0x5e>
 8002afc:	f1b3 4f80 	cmp.w	r3, #1073741824	; 0x40000000
 8002b00:	d017      	beq.n	8002b32 <HAL_TIMEx_MasterConfigSynchronization+0x5e>
 8002b02:	f5a4 447c 	sub.w	r4, r4, #64512	; 0xfc00
 8002b06:	42a3      	cmp	r3, r4
 8002b08:	d013      	beq.n	8002b32 <HAL_TIMEx_MasterConfigSynchronization+0x5e>
 8002b0a:	f504 6480 	add.w	r4, r4, #1024	; 0x400
 8002b0e:	42a3      	cmp	r3, r4
 8002b10:	d00f      	beq.n	8002b32 <HAL_TIMEx_MasterConfigSynchronization+0x5e>
 8002b12:	f504 6480 	add.w	r4, r4, #1024	; 0x400
 8002b16:	42a3      	cmp	r3, r4
 8002b18:	d00b      	beq.n	8002b32 <HAL_TIMEx_MasterConfigSynchronization+0x5e>
 8002b1a:	f504 4478 	add.w	r4, r4, #63488	; 0xf800
 8002b1e:	42a3      	cmp	r3, r4
 8002b20:	d007      	beq.n	8002b32 <HAL_TIMEx_MasterConfigSynchronization+0x5e>
 8002b22:	f504 5470 	add.w	r4, r4, #15360	; 0x3c00
 8002b26:	42a3      	cmp	r3, r4
 8002b28:	d003      	beq.n	8002b32 <HAL_TIMEx_MasterConfigSynchronization+0x5e>
 8002b2a:	f5a4 3494 	sub.w	r4, r4, #75776	; 0x12800
 8002b2e:	42a3      	cmp	r3, r4
 8002b30:	d104      	bne.n	8002b3c <HAL_TIMEx_MasterConfigSynchronization+0x68>
 8002b32:	6849      	ldr	r1, [r1, #4]
 8002b34:	f022 0280 	bic.w	r2, r2, #128	; 0x80
 8002b38:	430a      	orrs	r2, r1
 8002b3a:	609a      	str	r2, [r3, #8]
 8002b3c:	2301      	movs	r3, #1
 8002b3e:	f880 303d 	strb.w	r3, [r0, #61]	; 0x3d
 8002b42:	2300      	movs	r3, #0
 8002b44:	f880 303c 	strb.w	r3, [r0, #60]	; 0x3c
 8002b48:	4618      	mov	r0, r3
 8002b4a:	bd30      	pop	{r4, r5, pc}
 8002b4c:	40010000 	.word	0x40010000

08002b50 <HAL_TIMEx_CommutCallback>:
 8002b50:	4770      	bx	lr

08002b52 <HAL_TIMEx_BreakCallback>:
 8002b52:	4770      	bx	lr

08002b54 <UART_SetConfig>:
 8002b54:	6802      	ldr	r2, [r0, #0]
 8002b56:	68c1      	ldr	r1, [r0, #12]
 8002b58:	6913      	ldr	r3, [r2, #16]
 8002b5a:	f423 5340 	bic.w	r3, r3, #12288	; 0x3000
 8002b5e:	430b      	orrs	r3, r1
 8002b60:	b570      	push	{r4, r5, r6, lr}
 8002b62:	6113      	str	r3, [r2, #16]
 8002b64:	4605      	mov	r5, r0
 8002b66:	6883      	ldr	r3, [r0, #8]
 8002b68:	6900      	ldr	r0, [r0, #16]
 8002b6a:	68d1      	ldr	r1, [r2, #12]
 8002b6c:	4303      	orrs	r3, r0
 8002b6e:	6968      	ldr	r0, [r5, #20]
 8002b70:	4303      	orrs	r3, r0
 8002b72:	69e8      	ldr	r0, [r5, #28]
 8002b74:	f421 4116 	bic.w	r1, r1, #38400	; 0x9600
 8002b78:	f021 010c 	bic.w	r1, r1, #12
 8002b7c:	4303      	orrs	r3, r0
 8002b7e:	430b      	orrs	r3, r1
 8002b80:	60d3      	str	r3, [r2, #12]
 8002b82:	6953      	ldr	r3, [r2, #20]
 8002b84:	69a9      	ldr	r1, [r5, #24]
 8002b86:	f423 7340 	bic.w	r3, r3, #768	; 0x300
 8002b8a:	430b      	orrs	r3, r1
 8002b8c:	6153      	str	r3, [r2, #20]
 8002b8e:	4b1f      	ldr	r3, [pc, #124]	; (8002c0c <UART_SetConfig+0xb8>)
 8002b90:	429a      	cmp	r2, r3
 8002b92:	d003      	beq.n	8002b9c <UART_SetConfig+0x48>
 8002b94:	f503 6380 	add.w	r3, r3, #1024	; 0x400
 8002b98:	429a      	cmp	r2, r3
 8002b9a:	d123      	bne.n	8002be4 <UART_SetConfig+0x90>
 8002b9c:	f7ff f93e 	bl	8001e1c <HAL_RCC_GetPCLK2Freq>
 8002ba0:	69eb      	ldr	r3, [r5, #28]
 8002ba2:	2119      	movs	r1, #25
 8002ba4:	f5b3 4f00 	cmp.w	r3, #32768	; 0x8000
 8002ba8:	e9d5 4600 	ldrd	r4, r6, [r5]
 8002bac:	fba0 0101 	umull	r0, r1, r0, r1
 8002bb0:	d11b      	bne.n	8002bea <UART_SetConfig+0x96>
 8002bb2:	19b2      	adds	r2, r6, r6
 8002bb4:	f04f 0300 	mov.w	r3, #0
 8002bb8:	415b      	adcs	r3, r3
 8002bba:	f7fd fb29 	bl	8000210 <__aeabi_uldivmod>
 8002bbe:	2264      	movs	r2, #100	; 0x64
 8002bc0:	fbb0 f1f2 	udiv	r1, r0, r2
 8002bc4:	fb02 0311 	mls	r3, r2, r1, r0
 8002bc8:	00db      	lsls	r3, r3, #3
 8002bca:	3332      	adds	r3, #50	; 0x32
 8002bcc:	fbb3 f3f2 	udiv	r3, r3, r2
 8002bd0:	f003 0207 	and.w	r2, r3, #7
 8002bd4:	005b      	lsls	r3, r3, #1
 8002bd6:	eb02 1201 	add.w	r2, r2, r1, lsl #4
 8002bda:	f403 73f8 	and.w	r3, r3, #496	; 0x1f0
 8002bde:	4413      	add	r3, r2
 8002be0:	60a3      	str	r3, [r4, #8]
 8002be2:	bd70      	pop	{r4, r5, r6, pc}
 8002be4:	f7ff f90a 	bl	8001dfc <HAL_RCC_GetPCLK1Freq>
 8002be8:	e7da      	b.n	8002ba0 <UART_SetConfig+0x4c>
 8002bea:	00b2      	lsls	r2, r6, #2
 8002bec:	0fb3      	lsrs	r3, r6, #30
 8002bee:	f7fd fb0f 	bl	8000210 <__aeabi_uldivmod>
 8002bf2:	2264      	movs	r2, #100	; 0x64
 8002bf4:	fbb0 f1f2 	udiv	r1, r0, r2
 8002bf8:	fb02 0311 	mls	r3, r2, r1, r0
 8002bfc:	011b      	lsls	r3, r3, #4
 8002bfe:	3332      	adds	r3, #50	; 0x32
 8002c00:	fbb3 f3f2 	udiv	r3, r3, r2
 8002c04:	eb03 1301 	add.w	r3, r3, r1, lsl #4
 8002c08:	e7ea      	b.n	8002be0 <UART_SetConfig+0x8c>
 8002c0a:	bf00      	nop
 8002c0c:	40011000 	.word	0x40011000

08002c10 <HAL_UART_Init>:
 8002c10:	b510      	push	{r4, lr}
 8002c12:	4604      	mov	r4, r0
 8002c14:	b340      	cbz	r0, 8002c68 <HAL_UART_Init+0x58>
 8002c16:	f890 303d 	ldrb.w	r3, [r0, #61]	; 0x3d
 8002c1a:	f003 02ff 	and.w	r2, r3, #255	; 0xff
 8002c1e:	b91b      	cbnz	r3, 8002c28 <HAL_UART_Init+0x18>
 8002c20:	f880 203c 	strb.w	r2, [r0, #60]	; 0x3c
 8002c24:	f7fe fc2c 	bl	8001480 <HAL_UART_MspInit>
 8002c28:	6822      	ldr	r2, [r4, #0]
 8002c2a:	2324      	movs	r3, #36	; 0x24
 8002c2c:	f884 303d 	strb.w	r3, [r4, #61]	; 0x3d
 8002c30:	68d3      	ldr	r3, [r2, #12]
 8002c32:	f423 5300 	bic.w	r3, r3, #8192	; 0x2000
 8002c36:	60d3      	str	r3, [r2, #12]
 8002c38:	4620      	mov	r0, r4
 8002c3a:	f7ff ff8b 	bl	8002b54 <UART_SetConfig>
 8002c3e:	6823      	ldr	r3, [r4, #0]
 8002c40:	691a      	ldr	r2, [r3, #16]
 8002c42:	f422 4290 	bic.w	r2, r2, #18432	; 0x4800
 8002c46:	611a      	str	r2, [r3, #16]
 8002c48:	695a      	ldr	r2, [r3, #20]
 8002c4a:	f022 022a 	bic.w	r2, r2, #42	; 0x2a
 8002c4e:	615a      	str	r2, [r3, #20]
 8002c50:	68da      	ldr	r2, [r3, #12]
 8002c52:	f442 5200 	orr.w	r2, r2, #8192	; 0x2000
 8002c56:	60da      	str	r2, [r3, #12]
 8002c58:	2000      	movs	r0, #0
 8002c5a:	2320      	movs	r3, #32
 8002c5c:	6420      	str	r0, [r4, #64]	; 0x40
 8002c5e:	f884 303d 	strb.w	r3, [r4, #61]	; 0x3d
 8002c62:	f884 303e 	strb.w	r3, [r4, #62]	; 0x3e
 8002c66:	bd10      	pop	{r4, pc}
 8002c68:	2001      	movs	r0, #1
 8002c6a:	e7fc      	b.n	8002c66 <HAL_UART_Init+0x56>

08002c6c <SysTick_Handler>:
 8002c6c:	b508      	push	{r3, lr}
 8002c6e:	f04f 23e0 	mov.w	r3, #3758153728	; 0xe000e000
 8002c72:	691b      	ldr	r3, [r3, #16]
 8002c74:	f001 fb4e 	bl	8004314 <xTaskGetSchedulerState>
 8002c78:	2801      	cmp	r0, #1
 8002c7a:	d003      	beq.n	8002c84 <SysTick_Handler+0x18>
 8002c7c:	e8bd 4008 	ldmia.w	sp!, {r3, lr}
 8002c80:	f001 bef8 	b.w	8004a74 <xPortSysTickHandler>
 8002c84:	bd08      	pop	{r3, pc}
	...

08002c88 <osKernelInitialize>:
 8002c88:	f3ef 8305 	mrs	r3, IPSR
 8002c8c:	b92b      	cbnz	r3, 8002c9a <osKernelInitialize+0x12>
 8002c8e:	4b06      	ldr	r3, [pc, #24]	; (8002ca8 <osKernelInitialize+0x20>)
 8002c90:	6818      	ldr	r0, [r3, #0]
 8002c92:	b928      	cbnz	r0, 8002ca0 <osKernelInitialize+0x18>
 8002c94:	2201      	movs	r2, #1
 8002c96:	601a      	str	r2, [r3, #0]
 8002c98:	4770      	bx	lr
 8002c9a:	f06f 0005 	mvn.w	r0, #5
 8002c9e:	4770      	bx	lr
 8002ca0:	f04f 30ff 	mov.w	r0, #4294967295
 8002ca4:	4770      	bx	lr
 8002ca6:	bf00      	nop
 8002ca8:	20000488 	.word	0x20000488

08002cac <osKernelStart>:
 8002cac:	b510      	push	{r4, lr}
 8002cae:	f3ef 8405 	mrs	r4, IPSR
 8002cb2:	b95c      	cbnz	r4, 8002ccc <osKernelStart+0x20>
 8002cb4:	4b08      	ldr	r3, [pc, #32]	; (8002cd8 <osKernelStart+0x2c>)
 8002cb6:	681a      	ldr	r2, [r3, #0]
 8002cb8:	2a01      	cmp	r2, #1
 8002cba:	d10a      	bne.n	8002cd2 <osKernelStart+0x26>
 8002cbc:	4a07      	ldr	r2, [pc, #28]	; (8002cdc <osKernelStart+0x30>)
 8002cbe:	77d4      	strb	r4, [r2, #31]
 8002cc0:	2202      	movs	r2, #2
 8002cc2:	601a      	str	r2, [r3, #0]
 8002cc4:	f001 f872 	bl	8003dac <vTaskStartScheduler>
 8002cc8:	4620      	mov	r0, r4
 8002cca:	bd10      	pop	{r4, pc}
 8002ccc:	f06f 0005 	mvn.w	r0, #5
 8002cd0:	e7fb      	b.n	8002cca <osKernelStart+0x1e>
 8002cd2:	f04f 30ff 	mov.w	r0, #4294967295
 8002cd6:	e7f8      	b.n	8002cca <osKernelStart+0x1e>
 8002cd8:	20000488 	.word	0x20000488
 8002cdc:	e000ed00 	.word	0xe000ed00

08002ce0 <osThreadNew>:
 8002ce0:	b5f0      	push	{r4, r5, r6, r7, lr}
 8002ce2:	b087      	sub	sp, #28
 8002ce4:	460b      	mov	r3, r1
 8002ce6:	2100      	movs	r1, #0
 8002ce8:	9105      	str	r1, [sp, #20]
 8002cea:	f3ef 8405 	mrs	r4, IPSR
 8002cee:	b9cc      	cbnz	r4, 8002d24 <osThreadNew+0x44>
 8002cf0:	b1c0      	cbz	r0, 8002d24 <osThreadNew+0x44>
 8002cf2:	b36a      	cbz	r2, 8002d50 <osThreadNew+0x70>
 8002cf4:	6995      	ldr	r5, [r2, #24]
 8002cf6:	428d      	cmp	r5, r1
 8002cf8:	bf08      	it	eq
 8002cfa:	2518      	moveq	r5, #24
 8002cfc:	1e69      	subs	r1, r5, #1
 8002cfe:	2937      	cmp	r1, #55	; 0x37
 8002d00:	46ac      	mov	ip, r5
 8002d02:	d82a      	bhi.n	8002d5a <osThreadNew+0x7a>
 8002d04:	6851      	ldr	r1, [r2, #4]
 8002d06:	07c9      	lsls	r1, r1, #31
 8002d08:	d427      	bmi.n	8002d5a <osThreadNew+0x7a>
 8002d0a:	6956      	ldr	r6, [r2, #20]
 8002d0c:	b16e      	cbz	r6, 8002d2a <osThreadNew+0x4a>
 8002d0e:	08b4      	lsrs	r4, r6, #2
 8002d10:	e9d2 7e02 	ldrd	r7, lr, [r2, #8]
 8002d14:	6811      	ldr	r1, [r2, #0]
 8002d16:	b157      	cbz	r7, 8002d2e <osThreadNew+0x4e>
 8002d18:	f1be 0f63 	cmp.w	lr, #99	; 0x63
 8002d1c:	d902      	bls.n	8002d24 <osThreadNew+0x44>
 8002d1e:	6912      	ldr	r2, [r2, #16]
 8002d20:	b102      	cbz	r2, 8002d24 <osThreadNew+0x44>
 8002d22:	b9e6      	cbnz	r6, 8002d5e <osThreadNew+0x7e>
 8002d24:	9805      	ldr	r0, [sp, #20]
 8002d26:	b007      	add	sp, #28
 8002d28:	bdf0      	pop	{r4, r5, r6, r7, pc}
 8002d2a:	2480      	movs	r4, #128	; 0x80
 8002d2c:	e7f0      	b.n	8002d10 <osThreadNew+0x30>
 8002d2e:	f1be 0f00 	cmp.w	lr, #0
 8002d32:	d1f7      	bne.n	8002d24 <osThreadNew+0x44>
 8002d34:	6912      	ldr	r2, [r2, #16]
 8002d36:	2a00      	cmp	r2, #0
 8002d38:	d1f4      	bne.n	8002d24 <osThreadNew+0x44>
 8002d3a:	aa05      	add	r2, sp, #20
 8002d3c:	e9cd c200 	strd	ip, r2, [sp]
 8002d40:	b2a2      	uxth	r2, r4
 8002d42:	f001 f806 	bl	8003d52 <xTaskCreate>
 8002d46:	2801      	cmp	r0, #1
 8002d48:	bf1c      	itt	ne
 8002d4a:	2300      	movne	r3, #0
 8002d4c:	9305      	strne	r3, [sp, #20]
 8002d4e:	e7e9      	b.n	8002d24 <osThreadNew+0x44>
 8002d50:	4611      	mov	r1, r2
 8002d52:	f04f 0c18 	mov.w	ip, #24
 8002d56:	2480      	movs	r4, #128	; 0x80
 8002d58:	e7ef      	b.n	8002d3a <osThreadNew+0x5a>
 8002d5a:	4620      	mov	r0, r4
 8002d5c:	e7e3      	b.n	8002d26 <osThreadNew+0x46>
 8002d5e:	e9cd 2701 	strd	r2, r7, [sp, #4]
 8002d62:	9500      	str	r5, [sp, #0]
 8002d64:	4622      	mov	r2, r4
 8002d66:	f000 ffbc 	bl	8003ce2 <xTaskCreateStatic>
 8002d6a:	9005      	str	r0, [sp, #20]
 8002d6c:	e7da      	b.n	8002d24 <osThreadNew+0x44>

08002d6e <osDelay>:
 8002d6e:	b510      	push	{r4, lr}
 8002d70:	f3ef 8405 	mrs	r4, IPSR
 8002d74:	b924      	cbnz	r4, 8002d80 <osDelay+0x12>
 8002d76:	b110      	cbz	r0, 8002d7e <osDelay+0x10>
 8002d78:	f001 f978 	bl	800406c <vTaskDelay>
 8002d7c:	4620      	mov	r0, r4
 8002d7e:	bd10      	pop	{r4, pc}
 8002d80:	f06f 0005 	mvn.w	r0, #5
 8002d84:	e7fb      	b.n	8002d7e <osDelay+0x10>

08002d86 <osMutexNew>:
 8002d86:	b5f8      	push	{r3, r4, r5, r6, r7, lr}
 8002d88:	4604      	mov	r4, r0
 8002d8a:	f3ef 8605 	mrs	r6, IPSR
 8002d8e:	b116      	cbz	r6, 8002d96 <osMutexNew+0x10>
 8002d90:	2700      	movs	r7, #0
 8002d92:	4638      	mov	r0, r7
 8002d94:	bdf8      	pop	{r3, r4, r5, r6, r7, pc}
 8002d96:	b320      	cbz	r0, 8002de2 <osMutexNew+0x5c>
 8002d98:	6845      	ldr	r5, [r0, #4]
 8002d9a:	072b      	lsls	r3, r5, #28
 8002d9c:	d4f8      	bmi.n	8002d90 <osMutexNew+0xa>
 8002d9e:	e9d0 1302 	ldrd	r1, r3, [r0, #8]
 8002da2:	f005 0501 	and.w	r5, r5, #1
 8002da6:	b199      	cbz	r1, 8002dd0 <osMutexNew+0x4a>
 8002da8:	2b4f      	cmp	r3, #79	; 0x4f
 8002daa:	d9f1      	bls.n	8002d90 <osMutexNew+0xa>
 8002dac:	b1bd      	cbz	r5, 8002dde <osMutexNew+0x58>
 8002dae:	2004      	movs	r0, #4
 8002db0:	f000 fb54 	bl	800345c <xQueueCreateMutexStatic>
 8002db4:	4607      	mov	r7, r0
 8002db6:	2800      	cmp	r0, #0
 8002db8:	d0ea      	beq.n	8002d90 <osMutexNew+0xa>
 8002dba:	6824      	ldr	r4, [r4, #0]
 8002dbc:	462e      	mov	r6, r5
 8002dbe:	4621      	mov	r1, r4
 8002dc0:	4638      	mov	r0, r7
 8002dc2:	f000 fdf1 	bl	80039a8 <vQueueAddToRegistry>
 8002dc6:	2e00      	cmp	r6, #0
 8002dc8:	d0e3      	beq.n	8002d92 <osMutexNew+0xc>
 8002dca:	f047 0701 	orr.w	r7, r7, #1
 8002dce:	e7e0      	b.n	8002d92 <osMutexNew+0xc>
 8002dd0:	2b00      	cmp	r3, #0
 8002dd2:	d1dd      	bne.n	8002d90 <osMutexNew+0xa>
 8002dd4:	b12d      	cbz	r5, 8002de2 <osMutexNew+0x5c>
 8002dd6:	2004      	movs	r0, #4
 8002dd8:	f000 fb73 	bl	80034c2 <xQueueCreateMutex>
 8002ddc:	e7ea      	b.n	8002db4 <osMutexNew+0x2e>
 8002dde:	2001      	movs	r0, #1
 8002de0:	e7e6      	b.n	8002db0 <osMutexNew+0x2a>
 8002de2:	2001      	movs	r0, #1
 8002de4:	f000 fb6d 	bl	80034c2 <xQueueCreateMutex>
 8002de8:	4607      	mov	r7, r0
 8002dea:	2800      	cmp	r0, #0
 8002dec:	d0d0      	beq.n	8002d90 <osMutexNew+0xa>
 8002dee:	2c00      	cmp	r4, #0
 8002df0:	d0e5      	beq.n	8002dbe <osMutexNew+0x38>
 8002df2:	2500      	movs	r5, #0
 8002df4:	e7e1      	b.n	8002dba <osMutexNew+0x34>

08002df6 <osMutexAcquire>:
 8002df6:	4603      	mov	r3, r0
 8002df8:	b510      	push	{r4, lr}
 8002dfa:	f020 0001 	bic.w	r0, r0, #1
 8002dfe:	460c      	mov	r4, r1
 8002e00:	f003 0301 	and.w	r3, r3, #1
 8002e04:	f3ef 8205 	mrs	r2, IPSR
 8002e08:	b98a      	cbnz	r2, 8002e2e <osMutexAcquire+0x38>
 8002e0a:	b198      	cbz	r0, 8002e34 <osMutexAcquire+0x3e>
 8002e0c:	b163      	cbz	r3, 8002e28 <osMutexAcquire+0x32>
 8002e0e:	f000 fd39 	bl	8003884 <xQueueTakeMutexRecursive>
 8002e12:	2801      	cmp	r0, #1
 8002e14:	d101      	bne.n	8002e1a <osMutexAcquire+0x24>
 8002e16:	2000      	movs	r0, #0
 8002e18:	bd10      	pop	{r4, pc}
 8002e1a:	2c00      	cmp	r4, #0
 8002e1c:	bf14      	ite	ne
 8002e1e:	f06f 0001 	mvnne.w	r0, #1
 8002e22:	f06f 0002 	mvneq.w	r0, #2
 8002e26:	e7f7      	b.n	8002e18 <osMutexAcquire+0x22>
 8002e28:	f000 fc69 	bl	80036fe <xQueueSemaphoreTake>
 8002e2c:	e7f1      	b.n	8002e12 <osMutexAcquire+0x1c>
 8002e2e:	f06f 0005 	mvn.w	r0, #5
 8002e32:	e7f1      	b.n	8002e18 <osMutexAcquire+0x22>
 8002e34:	f06f 0003 	mvn.w	r0, #3
 8002e38:	e7ee      	b.n	8002e18 <osMutexAcquire+0x22>

08002e3a <osMutexRelease>:
 8002e3a:	b508      	push	{r3, lr}
 8002e3c:	4603      	mov	r3, r0
 8002e3e:	f003 0301 	and.w	r3, r3, #1
 8002e42:	f020 0001 	bic.w	r0, r0, #1
 8002e46:	f3ef 8205 	mrs	r2, IPSR
 8002e4a:	b972      	cbnz	r2, 8002e6a <osMutexRelease+0x30>
 8002e4c:	b180      	cbz	r0, 8002e70 <osMutexRelease+0x36>
 8002e4e:	b13b      	cbz	r3, 8002e60 <osMutexRelease+0x26>
 8002e50:	f000 fb19 	bl	8003486 <xQueueGiveMutexRecursive>
 8002e54:	2801      	cmp	r0, #1
 8002e56:	bf0c      	ite	eq
 8002e58:	2000      	moveq	r0, #0
 8002e5a:	f06f 0002 	mvnne.w	r0, #2
 8002e5e:	bd08      	pop	{r3, pc}
 8002e60:	461a      	mov	r2, r3
 8002e62:	4619      	mov	r1, r3
 8002e64:	f000 fa47 	bl	80032f6 <xQueueGenericSend>
 8002e68:	e7f4      	b.n	8002e54 <osMutexRelease+0x1a>
 8002e6a:	f06f 0005 	mvn.w	r0, #5
 8002e6e:	e7f6      	b.n	8002e5e <osMutexRelease+0x24>
 8002e70:	f06f 0003 	mvn.w	r0, #3
 8002e74:	e7f3      	b.n	8002e5e <osMutexRelease+0x24>

08002e76 <osSemaphoreGetCount>:
 8002e76:	b130      	cbz	r0, 8002e86 <osSemaphoreGetCount+0x10>
 8002e78:	f3ef 8305 	mrs	r3, IPSR
 8002e7c:	b10b      	cbz	r3, 8002e82 <osSemaphoreGetCount+0xc>
 8002e7e:	f000 bd87 	b.w	8003990 <uxQueueMessagesWaitingFromISR>
 8002e82:	f000 bd70 	b.w	8003966 <uxQueueMessagesWaiting>
 8002e86:	4770      	bx	lr

08002e88 <osMessageQueueNew>:
 8002e88:	b5f7      	push	{r0, r1, r2, r4, r5, r6, r7, lr}
 8002e8a:	4605      	mov	r5, r0
 8002e8c:	460e      	mov	r6, r1
 8002e8e:	4614      	mov	r4, r2
 8002e90:	f3ef 8705 	mrs	r7, IPSR
 8002e94:	b11f      	cbz	r7, 8002e9e <osMessageQueueNew+0x16>
 8002e96:	2500      	movs	r5, #0
 8002e98:	4628      	mov	r0, r5
 8002e9a:	b003      	add	sp, #12
 8002e9c:	bdf0      	pop	{r4, r5, r6, r7, pc}
 8002e9e:	2800      	cmp	r0, #0
 8002ea0:	d0f9      	beq.n	8002e96 <osMessageQueueNew+0xe>
 8002ea2:	2900      	cmp	r1, #0
 8002ea4:	d0f7      	beq.n	8002e96 <osMessageQueueNew+0xe>
 8002ea6:	b1da      	cbz	r2, 8002ee0 <osMessageQueueNew+0x58>
 8002ea8:	e9d2 3202 	ldrd	r3, r2, [r2, #8]
 8002eac:	b183      	cbz	r3, 8002ed0 <osMessageQueueNew+0x48>
 8002eae:	2a4f      	cmp	r2, #79	; 0x4f
 8002eb0:	d9f1      	bls.n	8002e96 <osMessageQueueNew+0xe>
 8002eb2:	6922      	ldr	r2, [r4, #16]
 8002eb4:	2a00      	cmp	r2, #0
 8002eb6:	d0ee      	beq.n	8002e96 <osMessageQueueNew+0xe>
 8002eb8:	6966      	ldr	r6, [r4, #20]
 8002eba:	434d      	muls	r5, r1
 8002ebc:	42ae      	cmp	r6, r5
 8002ebe:	d3ea      	bcc.n	8002e96 <osMessageQueueNew+0xe>
 8002ec0:	9700      	str	r7, [sp, #0]
 8002ec2:	f000 f9a3 	bl	800320c <xQueueGenericCreateStatic>
 8002ec6:	4605      	mov	r5, r0
 8002ec8:	2800      	cmp	r0, #0
 8002eca:	d0e4      	beq.n	8002e96 <osMessageQueueNew+0xe>
 8002ecc:	6824      	ldr	r4, [r4, #0]
 8002ece:	e011      	b.n	8002ef4 <osMessageQueueNew+0x6c>
 8002ed0:	2a00      	cmp	r2, #0
 8002ed2:	d1e0      	bne.n	8002e96 <osMessageQueueNew+0xe>
 8002ed4:	6923      	ldr	r3, [r4, #16]
 8002ed6:	2b00      	cmp	r3, #0
 8002ed8:	d1dd      	bne.n	8002e96 <osMessageQueueNew+0xe>
 8002eda:	6963      	ldr	r3, [r4, #20]
 8002edc:	2b00      	cmp	r3, #0
 8002ede:	d1da      	bne.n	8002e96 <osMessageQueueNew+0xe>
 8002ee0:	4628      	mov	r0, r5
 8002ee2:	2200      	movs	r2, #0
 8002ee4:	4631      	mov	r1, r6
 8002ee6:	f000 f9df 	bl	80032a8 <xQueueGenericCreate>
 8002eea:	4605      	mov	r5, r0
 8002eec:	2800      	cmp	r0, #0
 8002eee:	d0d2      	beq.n	8002e96 <osMessageQueueNew+0xe>
 8002ef0:	2c00      	cmp	r4, #0
 8002ef2:	d1eb      	bne.n	8002ecc <osMessageQueueNew+0x44>
 8002ef4:	4621      	mov	r1, r4
 8002ef6:	4628      	mov	r0, r5
 8002ef8:	f000 fd56 	bl	80039a8 <vQueueAddToRegistry>
 8002efc:	e7cc      	b.n	8002e98 <osMessageQueueNew+0x10>

08002efe <osMessageQueuePut>:
 8002efe:	b573      	push	{r0, r1, r4, r5, r6, lr}
 8002f00:	461c      	mov	r4, r3
 8002f02:	f3ef 8605 	mrs	r6, IPSR
 8002f06:	b1c6      	cbz	r6, 8002f3a <osMessageQueuePut+0x3c>
 8002f08:	b318      	cbz	r0, 8002f52 <osMessageQueuePut+0x54>
 8002f0a:	b311      	cbz	r1, 8002f52 <osMessageQueuePut+0x54>
 8002f0c:	bb0b      	cbnz	r3, 8002f52 <osMessageQueuePut+0x54>
 8002f0e:	aa01      	add	r2, sp, #4
 8002f10:	9301      	str	r3, [sp, #4]
 8002f12:	f000 faf3 	bl	80034fc <xQueueGenericSendFromISR>
 8002f16:	2801      	cmp	r0, #1
 8002f18:	d118      	bne.n	8002f4c <osMessageQueuePut+0x4e>
 8002f1a:	9b01      	ldr	r3, [sp, #4]
 8002f1c:	b913      	cbnz	r3, 8002f24 <osMessageQueuePut+0x26>
 8002f1e:	2000      	movs	r0, #0
 8002f20:	b002      	add	sp, #8
 8002f22:	bd70      	pop	{r4, r5, r6, pc}
 8002f24:	f04f 23e0 	mov.w	r3, #3758153728	; 0xe000e000
 8002f28:	f04f 5280 	mov.w	r2, #268435456	; 0x10000000
 8002f2c:	f8c3 2d04 	str.w	r2, [r3, #3332]	; 0xd04
 8002f30:	f3bf 8f4f 	dsb	sy
 8002f34:	f3bf 8f6f 	isb	sy
 8002f38:	e7f1      	b.n	8002f1e <osMessageQueuePut+0x20>
 8002f3a:	b150      	cbz	r0, 8002f52 <osMessageQueuePut+0x54>
 8002f3c:	b149      	cbz	r1, 8002f52 <osMessageQueuePut+0x54>
 8002f3e:	4633      	mov	r3, r6
 8002f40:	4622      	mov	r2, r4
 8002f42:	f000 f9d8 	bl	80032f6 <xQueueGenericSend>
 8002f46:	2801      	cmp	r0, #1
 8002f48:	d0e9      	beq.n	8002f1e <osMessageQueuePut+0x20>
 8002f4a:	b92c      	cbnz	r4, 8002f58 <osMessageQueuePut+0x5a>
 8002f4c:	f06f 0002 	mvn.w	r0, #2
 8002f50:	e7e6      	b.n	8002f20 <osMessageQueuePut+0x22>
 8002f52:	f06f 0003 	mvn.w	r0, #3
 8002f56:	e7e3      	b.n	8002f20 <osMessageQueuePut+0x22>
 8002f58:	f06f 0001 	mvn.w	r0, #1
 8002f5c:	e7e0      	b.n	8002f20 <osMessageQueuePut+0x22>

08002f5e <osMessageQueueGet>:
 8002f5e:	b537      	push	{r0, r1, r2, r4, r5, lr}
 8002f60:	461c      	mov	r4, r3
 8002f62:	f3ef 8305 	mrs	r3, IPSR
 8002f66:	b1c3      	cbz	r3, 8002f9a <osMessageQueueGet+0x3c>
 8002f68:	b310      	cbz	r0, 8002fb0 <osMessageQueueGet+0x52>
 8002f6a:	b309      	cbz	r1, 8002fb0 <osMessageQueueGet+0x52>
 8002f6c:	bb04      	cbnz	r4, 8002fb0 <osMessageQueueGet+0x52>
 8002f6e:	aa01      	add	r2, sp, #4
 8002f70:	9401      	str	r4, [sp, #4]
 8002f72:	f000 fca9 	bl	80038c8 <xQueueReceiveFromISR>
 8002f76:	2801      	cmp	r0, #1
 8002f78:	d117      	bne.n	8002faa <osMessageQueueGet+0x4c>
 8002f7a:	9b01      	ldr	r3, [sp, #4]
 8002f7c:	b913      	cbnz	r3, 8002f84 <osMessageQueueGet+0x26>
 8002f7e:	2000      	movs	r0, #0
 8002f80:	b003      	add	sp, #12
 8002f82:	bd30      	pop	{r4, r5, pc}
 8002f84:	f04f 23e0 	mov.w	r3, #3758153728	; 0xe000e000
 8002f88:	f04f 5280 	mov.w	r2, #268435456	; 0x10000000
 8002f8c:	f8c3 2d04 	str.w	r2, [r3, #3332]	; 0xd04
 8002f90:	f3bf 8f4f 	dsb	sy
 8002f94:	f3bf 8f6f 	isb	sy
 8002f98:	e7f1      	b.n	8002f7e <osMessageQueueGet+0x20>
 8002f9a:	b148      	cbz	r0, 8002fb0 <osMessageQueueGet+0x52>
 8002f9c:	b141      	cbz	r1, 8002fb0 <osMessageQueueGet+0x52>
 8002f9e:	4622      	mov	r2, r4
 8002fa0:	f000 fb0e 	bl	80035c0 <xQueueReceive>
 8002fa4:	2801      	cmp	r0, #1
 8002fa6:	d0ea      	beq.n	8002f7e <osMessageQueueGet+0x20>
 8002fa8:	b92c      	cbnz	r4, 8002fb6 <osMessageQueueGet+0x58>
 8002faa:	f06f 0002 	mvn.w	r0, #2
 8002fae:	e7e7      	b.n	8002f80 <osMessageQueueGet+0x22>
 8002fb0:	f06f 0003 	mvn.w	r0, #3
 8002fb4:	e7e4      	b.n	8002f80 <osMessageQueueGet+0x22>
 8002fb6:	f06f 0001 	mvn.w	r0, #1
 8002fba:	e7e1      	b.n	8002f80 <osMessageQueueGet+0x22>

08002fbc <osMessageQueueGetCount>:
 8002fbc:	f7ff bf5b 	b.w	8002e76 <osSemaphoreGetCount>

08002fc0 <vApplicationGetIdleTaskMemory>:
 8002fc0:	4b03      	ldr	r3, [pc, #12]	; (8002fd0 <vApplicationGetIdleTaskMemory+0x10>)
 8002fc2:	6003      	str	r3, [r0, #0]
 8002fc4:	4b03      	ldr	r3, [pc, #12]	; (8002fd4 <vApplicationGetIdleTaskMemory+0x14>)
 8002fc6:	600b      	str	r3, [r1, #0]
 8002fc8:	2380      	movs	r3, #128	; 0x80
 8002fca:	6013      	str	r3, [r2, #0]
 8002fcc:	4770      	bx	lr
 8002fce:	bf00      	nop
 8002fd0:	20000424 	.word	0x20000424
 8002fd4:	20000224 	.word	0x20000224

08002fd8 <vApplicationGetTimerTaskMemory>:
 8002fd8:	4b03      	ldr	r3, [pc, #12]	; (8002fe8 <vApplicationGetTimerTaskMemory+0x10>)
 8002fda:	6003      	str	r3, [r0, #0]
 8002fdc:	4b03      	ldr	r3, [pc, #12]	; (8002fec <vApplicationGetTimerTaskMemory+0x14>)
 8002fde:	600b      	str	r3, [r1, #0]
 8002fe0:	f44f 7380 	mov.w	r3, #256	; 0x100
 8002fe4:	6013      	str	r3, [r2, #0]
 8002fe6:	4770      	bx	lr
 8002fe8:	2000088c 	.word	0x2000088c
 8002fec:	2000048c 	.word	0x2000048c

08002ff0 <vListInitialise>:
 8002ff0:	f100 0308 	add.w	r3, r0, #8
 8002ff4:	f04f 32ff 	mov.w	r2, #4294967295
 8002ff8:	e9c0 2302 	strd	r2, r3, [r0, #8]
 8002ffc:	6043      	str	r3, [r0, #4]
 8002ffe:	6103      	str	r3, [r0, #16]
 8003000:	2300      	movs	r3, #0
 8003002:	6003      	str	r3, [r0, #0]
 8003004:	4770      	bx	lr

08003006 <vListInitialiseItem>:
 8003006:	2300      	movs	r3, #0
 8003008:	6103      	str	r3, [r0, #16]
 800300a:	4770      	bx	lr

0800300c <vListInsertEnd>:
 800300c:	6843      	ldr	r3, [r0, #4]
 800300e:	604b      	str	r3, [r1, #4]
 8003010:	689a      	ldr	r2, [r3, #8]
 8003012:	608a      	str	r2, [r1, #8]
 8003014:	689a      	ldr	r2, [r3, #8]
 8003016:	6051      	str	r1, [r2, #4]
 8003018:	6099      	str	r1, [r3, #8]
 800301a:	6803      	ldr	r3, [r0, #0]
 800301c:	6108      	str	r0, [r1, #16]
 800301e:	3301      	adds	r3, #1
 8003020:	6003      	str	r3, [r0, #0]
 8003022:	4770      	bx	lr

08003024 <vListInsert>:
 8003024:	b530      	push	{r4, r5, lr}
 8003026:	680c      	ldr	r4, [r1, #0]
 8003028:	1c63      	adds	r3, r4, #1
 800302a:	d10a      	bne.n	8003042 <vListInsert+0x1e>
 800302c:	6903      	ldr	r3, [r0, #16]
 800302e:	685a      	ldr	r2, [r3, #4]
 8003030:	604a      	str	r2, [r1, #4]
 8003032:	6091      	str	r1, [r2, #8]
 8003034:	608b      	str	r3, [r1, #8]
 8003036:	6059      	str	r1, [r3, #4]
 8003038:	6803      	ldr	r3, [r0, #0]
 800303a:	6108      	str	r0, [r1, #16]
 800303c:	3301      	adds	r3, #1
 800303e:	6003      	str	r3, [r0, #0]
 8003040:	bd30      	pop	{r4, r5, pc}
 8003042:	f100 0208 	add.w	r2, r0, #8
 8003046:	4613      	mov	r3, r2
 8003048:	6852      	ldr	r2, [r2, #4]
 800304a:	6815      	ldr	r5, [r2, #0]
 800304c:	42a5      	cmp	r5, r4
 800304e:	d9fa      	bls.n	8003046 <vListInsert+0x22>
 8003050:	e7ed      	b.n	800302e <vListInsert+0xa>

08003052 <uxListRemove>:
 8003052:	e9d0 1201 	ldrd	r1, r2, [r0, #4]
 8003056:	6903      	ldr	r3, [r0, #16]
 8003058:	608a      	str	r2, [r1, #8]
 800305a:	6051      	str	r1, [r2, #4]
 800305c:	6859      	ldr	r1, [r3, #4]
 800305e:	4281      	cmp	r1, r0
 8003060:	bf08      	it	eq
 8003062:	605a      	streq	r2, [r3, #4]
 8003064:	2200      	movs	r2, #0
 8003066:	6102      	str	r2, [r0, #16]
 8003068:	681a      	ldr	r2, [r3, #0]
 800306a:	3a01      	subs	r2, #1
 800306c:	601a      	str	r2, [r3, #0]
 800306e:	6818      	ldr	r0, [r3, #0]
 8003070:	4770      	bx	lr

08003072 <prvIsQueueEmpty>:
 8003072:	b510      	push	{r4, lr}
 8003074:	4604      	mov	r4, r0
 8003076:	f001 fc95 	bl	80049a4 <vPortEnterCritical>
 800307a:	6ba4      	ldr	r4, [r4, #56]	; 0x38
 800307c:	f001 fcb2 	bl	80049e4 <vPortExitCritical>
 8003080:	fab4 f084 	clz	r0, r4
 8003084:	0940      	lsrs	r0, r0, #5
 8003086:	bd10      	pop	{r4, pc}

08003088 <prvCopyDataToQueue>:
 8003088:	b5f8      	push	{r3, r4, r5, r6, r7, lr}
 800308a:	4615      	mov	r5, r2
 800308c:	6c02      	ldr	r2, [r0, #64]	; 0x40
 800308e:	6b86      	ldr	r6, [r0, #56]	; 0x38
 8003090:	4604      	mov	r4, r0
 8003092:	b952      	cbnz	r2, 80030aa <prvCopyDataToQueue+0x22>
 8003094:	6807      	ldr	r7, [r0, #0]
 8003096:	bb47      	cbnz	r7, 80030ea <prvCopyDataToQueue+0x62>
 8003098:	6880      	ldr	r0, [r0, #8]
 800309a:	f001 f98d 	bl	80043b8 <xTaskPriorityDisinherit>
 800309e:	60a7      	str	r7, [r4, #8]
 80030a0:	4605      	mov	r5, r0
 80030a2:	3601      	adds	r6, #1
 80030a4:	63a6      	str	r6, [r4, #56]	; 0x38
 80030a6:	4628      	mov	r0, r5
 80030a8:	bdf8      	pop	{r3, r4, r5, r6, r7, pc}
 80030aa:	b965      	cbnz	r5, 80030c6 <prvCopyDataToQueue+0x3e>
 80030ac:	6840      	ldr	r0, [r0, #4]
 80030ae:	f001 fee5 	bl	8004e7c <memcpy>
 80030b2:	6863      	ldr	r3, [r4, #4]
 80030b4:	6c22      	ldr	r2, [r4, #64]	; 0x40
 80030b6:	4413      	add	r3, r2
 80030b8:	68a2      	ldr	r2, [r4, #8]
 80030ba:	6063      	str	r3, [r4, #4]
 80030bc:	4293      	cmp	r3, r2
 80030be:	d3f0      	bcc.n	80030a2 <prvCopyDataToQueue+0x1a>
 80030c0:	6823      	ldr	r3, [r4, #0]
 80030c2:	6063      	str	r3, [r4, #4]
 80030c4:	e7ed      	b.n	80030a2 <prvCopyDataToQueue+0x1a>
 80030c6:	68c0      	ldr	r0, [r0, #12]
 80030c8:	f001 fed8 	bl	8004e7c <memcpy>
 80030cc:	6c22      	ldr	r2, [r4, #64]	; 0x40
 80030ce:	68e3      	ldr	r3, [r4, #12]
 80030d0:	4251      	negs	r1, r2
 80030d2:	1a9b      	subs	r3, r3, r2
 80030d4:	6822      	ldr	r2, [r4, #0]
 80030d6:	60e3      	str	r3, [r4, #12]
 80030d8:	4293      	cmp	r3, r2
 80030da:	bf3e      	ittt	cc
 80030dc:	68a3      	ldrcc	r3, [r4, #8]
 80030de:	185b      	addcc	r3, r3, r1
 80030e0:	60e3      	strcc	r3, [r4, #12]
 80030e2:	2d02      	cmp	r5, #2
 80030e4:	d101      	bne.n	80030ea <prvCopyDataToQueue+0x62>
 80030e6:	b116      	cbz	r6, 80030ee <prvCopyDataToQueue+0x66>
 80030e8:	3e01      	subs	r6, #1
 80030ea:	2500      	movs	r5, #0
 80030ec:	e7d9      	b.n	80030a2 <prvCopyDataToQueue+0x1a>
 80030ee:	4635      	mov	r5, r6
 80030f0:	e7d7      	b.n	80030a2 <prvCopyDataToQueue+0x1a>

080030f2 <prvCopyDataFromQueue>:
 80030f2:	4603      	mov	r3, r0
 80030f4:	b410      	push	{r4}
 80030f6:	6c1a      	ldr	r2, [r3, #64]	; 0x40
 80030f8:	4608      	mov	r0, r1
 80030fa:	b16a      	cbz	r2, 8003118 <prvCopyDataFromQueue+0x26>
 80030fc:	68dc      	ldr	r4, [r3, #12]
 80030fe:	6899      	ldr	r1, [r3, #8]
 8003100:	4414      	add	r4, r2
 8003102:	428c      	cmp	r4, r1
 8003104:	bf28      	it	cs
 8003106:	6819      	ldrcs	r1, [r3, #0]
 8003108:	60dc      	str	r4, [r3, #12]
 800310a:	bf28      	it	cs
 800310c:	60d9      	strcs	r1, [r3, #12]
 800310e:	68d9      	ldr	r1, [r3, #12]
 8003110:	f85d 4b04 	ldr.w	r4, [sp], #4
 8003114:	f001 beb2 	b.w	8004e7c <memcpy>
 8003118:	f85d 4b04 	ldr.w	r4, [sp], #4
 800311c:	4770      	bx	lr

0800311e <prvUnlockQueue>:
 800311e:	b570      	push	{r4, r5, r6, lr}
 8003120:	4604      	mov	r4, r0
 8003122:	f001 fc3f 	bl	80049a4 <vPortEnterCritical>
 8003126:	f894 5045 	ldrb.w	r5, [r4, #69]	; 0x45
 800312a:	f104 0624 	add.w	r6, r4, #36	; 0x24
 800312e:	b26d      	sxtb	r5, r5
 8003130:	2d00      	cmp	r5, #0
 8003132:	dc14      	bgt.n	800315e <prvUnlockQueue+0x40>
 8003134:	23ff      	movs	r3, #255	; 0xff
 8003136:	f884 3045 	strb.w	r3, [r4, #69]	; 0x45
 800313a:	f001 fc53 	bl	80049e4 <vPortExitCritical>
 800313e:	f001 fc31 	bl	80049a4 <vPortEnterCritical>
 8003142:	f894 5044 	ldrb.w	r5, [r4, #68]	; 0x44
 8003146:	f104 0610 	add.w	r6, r4, #16
 800314a:	b26d      	sxtb	r5, r5
 800314c:	2d00      	cmp	r5, #0
 800314e:	dc12      	bgt.n	8003176 <prvUnlockQueue+0x58>
 8003150:	23ff      	movs	r3, #255	; 0xff
 8003152:	f884 3044 	strb.w	r3, [r4, #68]	; 0x44
 8003156:	e8bd 4070 	ldmia.w	sp!, {r4, r5, r6, lr}
 800315a:	f001 bc43 	b.w	80049e4 <vPortExitCritical>
 800315e:	6a63      	ldr	r3, [r4, #36]	; 0x24
 8003160:	2b00      	cmp	r3, #0
 8003162:	d0e7      	beq.n	8003134 <prvUnlockQueue+0x16>
 8003164:	4630      	mov	r0, r6
 8003166:	f001 f83d 	bl	80041e4 <xTaskRemoveFromEventList>
 800316a:	b108      	cbz	r0, 8003170 <prvUnlockQueue+0x52>
 800316c:	f001 f8c6 	bl	80042fc <vTaskMissedYield>
 8003170:	3d01      	subs	r5, #1
 8003172:	b26d      	sxtb	r5, r5
 8003174:	e7dc      	b.n	8003130 <prvUnlockQueue+0x12>
 8003176:	6923      	ldr	r3, [r4, #16]
 8003178:	2b00      	cmp	r3, #0
 800317a:	d0e9      	beq.n	8003150 <prvUnlockQueue+0x32>
 800317c:	4630      	mov	r0, r6
 800317e:	f001 f831 	bl	80041e4 <xTaskRemoveFromEventList>
 8003182:	b108      	cbz	r0, 8003188 <prvUnlockQueue+0x6a>
 8003184:	f001 f8ba 	bl	80042fc <vTaskMissedYield>
 8003188:	3d01      	subs	r5, #1
 800318a:	b26d      	sxtb	r5, r5
 800318c:	e7de      	b.n	800314c <prvUnlockQueue+0x2e>

0800318e <xQueueGenericReset>:
 800318e:	b538      	push	{r3, r4, r5, lr}
 8003190:	460d      	mov	r5, r1
 8003192:	4604      	mov	r4, r0
 8003194:	b940      	cbnz	r0, 80031a8 <xQueueGenericReset+0x1a>
 8003196:	f04f 0350 	mov.w	r3, #80	; 0x50
 800319a:	f383 8811 	msr	BASEPRI, r3
 800319e:	f3bf 8f6f 	isb	sy
 80031a2:	f3bf 8f4f 	dsb	sy
 80031a6:	e7fe      	b.n	80031a6 <xQueueGenericReset+0x18>
 80031a8:	f001 fbfc 	bl	80049a4 <vPortEnterCritical>
 80031ac:	e9d4 310f 	ldrd	r3, r1, [r4, #60]	; 0x3c
 80031b0:	6822      	ldr	r2, [r4, #0]
 80031b2:	6062      	str	r2, [r4, #4]
 80031b4:	434b      	muls	r3, r1
 80031b6:	18d0      	adds	r0, r2, r3
 80031b8:	1a5b      	subs	r3, r3, r1
 80031ba:	441a      	add	r2, r3
 80031bc:	60a0      	str	r0, [r4, #8]
 80031be:	23ff      	movs	r3, #255	; 0xff
 80031c0:	2000      	movs	r0, #0
 80031c2:	63a0      	str	r0, [r4, #56]	; 0x38
 80031c4:	60e2      	str	r2, [r4, #12]
 80031c6:	f884 3044 	strb.w	r3, [r4, #68]	; 0x44
 80031ca:	f884 3045 	strb.w	r3, [r4, #69]	; 0x45
 80031ce:	b9a5      	cbnz	r5, 80031fa <xQueueGenericReset+0x6c>
 80031d0:	6923      	ldr	r3, [r4, #16]
 80031d2:	b173      	cbz	r3, 80031f2 <xQueueGenericReset+0x64>
 80031d4:	f104 0010 	add.w	r0, r4, #16
 80031d8:	f001 f804 	bl	80041e4 <xTaskRemoveFromEventList>
 80031dc:	b148      	cbz	r0, 80031f2 <xQueueGenericReset+0x64>
 80031de:	f04f 23e0 	mov.w	r3, #3758153728	; 0xe000e000
 80031e2:	f04f 5280 	mov.w	r2, #268435456	; 0x10000000
 80031e6:	f8c3 2d04 	str.w	r2, [r3, #3332]	; 0xd04
 80031ea:	f3bf 8f4f 	dsb	sy
 80031ee:	f3bf 8f6f 	isb	sy
 80031f2:	f001 fbf7 	bl	80049e4 <vPortExitCritical>
 80031f6:	2001      	movs	r0, #1
 80031f8:	bd38      	pop	{r3, r4, r5, pc}
 80031fa:	f104 0010 	add.w	r0, r4, #16
 80031fe:	f7ff fef7 	bl	8002ff0 <vListInitialise>
 8003202:	f104 0024 	add.w	r0, r4, #36	; 0x24
 8003206:	f7ff fef3 	bl	8002ff0 <vListInitialise>
 800320a:	e7f2      	b.n	80031f2 <xQueueGenericReset+0x64>

0800320c <xQueueGenericCreateStatic>:
 800320c:	b513      	push	{r0, r1, r4, lr}
 800320e:	461c      	mov	r4, r3
 8003210:	b940      	cbnz	r0, 8003224 <xQueueGenericCreateStatic+0x18>
 8003212:	f04f 0350 	mov.w	r3, #80	; 0x50
 8003216:	f383 8811 	msr	BASEPRI, r3
 800321a:	f3bf 8f6f 	isb	sy
 800321e:	f3bf 8f4f 	dsb	sy
 8003222:	e7fe      	b.n	8003222 <xQueueGenericCreateStatic+0x16>
 8003224:	b943      	cbnz	r3, 8003238 <xQueueGenericCreateStatic+0x2c>
 8003226:	f04f 0350 	mov.w	r3, #80	; 0x50
 800322a:	f383 8811 	msr	BASEPRI, r3
 800322e:	f3bf 8f6f 	isb	sy
 8003232:	f3bf 8f4f 	dsb	sy
 8003236:	e7fe      	b.n	8003236 <xQueueGenericCreateStatic+0x2a>
 8003238:	b14a      	cbz	r2, 800324e <xQueueGenericCreateStatic+0x42>
 800323a:	b991      	cbnz	r1, 8003262 <xQueueGenericCreateStatic+0x56>
 800323c:	f04f 0350 	mov.w	r3, #80	; 0x50
 8003240:	f383 8811 	msr	BASEPRI, r3
 8003244:	f3bf 8f6f 	isb	sy
 8003248:	f3bf 8f4f 	dsb	sy
 800324c:	e7fe      	b.n	800324c <xQueueGenericCreateStatic+0x40>
 800324e:	b141      	cbz	r1, 8003262 <xQueueGenericCreateStatic+0x56>
 8003250:	f04f 0350 	mov.w	r3, #80	; 0x50
 8003254:	f383 8811 	msr	BASEPRI, r3
 8003258:	f3bf 8f6f 	isb	sy
 800325c:	f3bf 8f4f 	dsb	sy
 8003260:	e7fe      	b.n	8003260 <xQueueGenericCreateStatic+0x54>
 8003262:	2350      	movs	r3, #80	; 0x50
 8003264:	9301      	str	r3, [sp, #4]
 8003266:	9b01      	ldr	r3, [sp, #4]
 8003268:	2b50      	cmp	r3, #80	; 0x50
 800326a:	d008      	beq.n	800327e <xQueueGenericCreateStatic+0x72>
 800326c:	f04f 0350 	mov.w	r3, #80	; 0x50
 8003270:	f383 8811 	msr	BASEPRI, r3
 8003274:	f3bf 8f6f 	isb	sy
 8003278:	f3bf 8f4f 	dsb	sy
 800327c:	e7fe      	b.n	800327c <xQueueGenericCreateStatic+0x70>
 800327e:	2900      	cmp	r1, #0
 8003280:	bf08      	it	eq
 8003282:	4622      	moveq	r2, r4
 8003284:	9b01      	ldr	r3, [sp, #4]
 8003286:	6022      	str	r2, [r4, #0]
 8003288:	2301      	movs	r3, #1
 800328a:	e9c4 010f 	strd	r0, r1, [r4, #60]	; 0x3c
 800328e:	f884 3046 	strb.w	r3, [r4, #70]	; 0x46
 8003292:	4619      	mov	r1, r3
 8003294:	4620      	mov	r0, r4
 8003296:	f7ff ff7a 	bl	800318e <xQueueGenericReset>
 800329a:	f89d 3010 	ldrb.w	r3, [sp, #16]
 800329e:	f884 304c 	strb.w	r3, [r4, #76]	; 0x4c
 80032a2:	4620      	mov	r0, r4
 80032a4:	b002      	add	sp, #8
 80032a6:	bd10      	pop	{r4, pc}

080032a8 <xQueueGenericCreate>:
 80032a8:	b5f8      	push	{r3, r4, r5, r6, r7, lr}
 80032aa:	460d      	mov	r5, r1
 80032ac:	4617      	mov	r7, r2
 80032ae:	4606      	mov	r6, r0
 80032b0:	b940      	cbnz	r0, 80032c4 <xQueueGenericCreate+0x1c>
 80032b2:	f04f 0350 	mov.w	r3, #80	; 0x50
 80032b6:	f383 8811 	msr	BASEPRI, r3
 80032ba:	f3bf 8f6f 	isb	sy
 80032be:	f3bf 8f4f 	dsb	sy
 80032c2:	e7fe      	b.n	80032c2 <xQueueGenericCreate+0x1a>
 80032c4:	4348      	muls	r0, r1
 80032c6:	3050      	adds	r0, #80	; 0x50
 80032c8:	f001 fcd6 	bl	8004c78 <pvPortMalloc>
 80032cc:	4604      	mov	r4, r0
 80032ce:	b170      	cbz	r0, 80032ee <xQueueGenericCreate+0x46>
 80032d0:	2300      	movs	r3, #0
 80032d2:	f880 3046 	strb.w	r3, [r0, #70]	; 0x46
 80032d6:	b165      	cbz	r5, 80032f2 <xQueueGenericCreate+0x4a>
 80032d8:	f100 0350 	add.w	r3, r0, #80	; 0x50
 80032dc:	e9c4 650f 	strd	r6, r5, [r4, #60]	; 0x3c
 80032e0:	6023      	str	r3, [r4, #0]
 80032e2:	2101      	movs	r1, #1
 80032e4:	4620      	mov	r0, r4
 80032e6:	f7ff ff52 	bl	800318e <xQueueGenericReset>
 80032ea:	f884 704c 	strb.w	r7, [r4, #76]	; 0x4c
 80032ee:	4620      	mov	r0, r4
 80032f0:	bdf8      	pop	{r3, r4, r5, r6, r7, pc}
 80032f2:	4603      	mov	r3, r0
 80032f4:	e7f2      	b.n	80032dc <xQueueGenericCreate+0x34>

080032f6 <xQueueGenericSend>:
 80032f6:	e92d 43f0 	stmdb	sp!, {r4, r5, r6, r7, r8, r9, lr}
 80032fa:	b085      	sub	sp, #20
 80032fc:	4688      	mov	r8, r1
 80032fe:	9201      	str	r2, [sp, #4]
 8003300:	461f      	mov	r7, r3
 8003302:	4604      	mov	r4, r0
 8003304:	b940      	cbnz	r0, 8003318 <xQueueGenericSend+0x22>
 8003306:	f04f 0350 	mov.w	r3, #80	; 0x50
 800330a:	f383 8811 	msr	BASEPRI, r3
 800330e:	f3bf 8f6f 	isb	sy
 8003312:	f3bf 8f4f 	dsb	sy
 8003316:	e7fe      	b.n	8003316 <xQueueGenericSend+0x20>
 8003318:	b951      	cbnz	r1, 8003330 <xQueueGenericSend+0x3a>
 800331a:	6c03      	ldr	r3, [r0, #64]	; 0x40
 800331c:	b143      	cbz	r3, 8003330 <xQueueGenericSend+0x3a>
 800331e:	f04f 0350 	mov.w	r3, #80	; 0x50
 8003322:	f383 8811 	msr	BASEPRI, r3
 8003326:	f3bf 8f6f 	isb	sy
 800332a:	f3bf 8f4f 	dsb	sy
 800332e:	e7fe      	b.n	800332e <xQueueGenericSend+0x38>
 8003330:	2f02      	cmp	r7, #2
 8003332:	d10b      	bne.n	800334c <xQueueGenericSend+0x56>
 8003334:	6be3      	ldr	r3, [r4, #60]	; 0x3c
 8003336:	2b01      	cmp	r3, #1
 8003338:	d008      	beq.n	800334c <xQueueGenericSend+0x56>
 800333a:	f04f 0350 	mov.w	r3, #80	; 0x50
 800333e:	f383 8811 	msr	BASEPRI, r3
 8003342:	f3bf 8f6f 	isb	sy
 8003346:	f3bf 8f4f 	dsb	sy
 800334a:	e7fe      	b.n	800334a <xQueueGenericSend+0x54>
 800334c:	f000 ffe2 	bl	8004314 <xTaskGetSchedulerState>
 8003350:	4606      	mov	r6, r0
 8003352:	b950      	cbnz	r0, 800336a <xQueueGenericSend+0x74>
 8003354:	9b01      	ldr	r3, [sp, #4]
 8003356:	b14b      	cbz	r3, 800336c <xQueueGenericSend+0x76>
 8003358:	f04f 0350 	mov.w	r3, #80	; 0x50
 800335c:	f383 8811 	msr	BASEPRI, r3
 8003360:	f3bf 8f6f 	isb	sy
 8003364:	f3bf 8f4f 	dsb	sy
 8003368:	e7fe      	b.n	8003368 <xQueueGenericSend+0x72>
 800336a:	2600      	movs	r6, #0
 800336c:	f04f 0900 	mov.w	r9, #0
 8003370:	e037      	b.n	80033e2 <xQueueGenericSend+0xec>
 8003372:	9d01      	ldr	r5, [sp, #4]
 8003374:	b91d      	cbnz	r5, 800337e <xQueueGenericSend+0x88>
 8003376:	f001 fb35 	bl	80049e4 <vPortExitCritical>
 800337a:	2000      	movs	r0, #0
 800337c:	e052      	b.n	8003424 <xQueueGenericSend+0x12e>
 800337e:	b916      	cbnz	r6, 8003386 <xQueueGenericSend+0x90>
 8003380:	a802      	add	r0, sp, #8
 8003382:	f000 ff73 	bl	800426c <vTaskInternalSetTimeOutState>
 8003386:	f001 fb2d 	bl	80049e4 <vPortExitCritical>
 800338a:	f000 fd57 	bl	8003e3c <vTaskSuspendAll>
 800338e:	f001 fb09 	bl	80049a4 <vPortEnterCritical>
 8003392:	f894 3044 	ldrb.w	r3, [r4, #68]	; 0x44
 8003396:	2bff      	cmp	r3, #255	; 0xff
 8003398:	bf08      	it	eq
 800339a:	f884 9044 	strbeq.w	r9, [r4, #68]	; 0x44
 800339e:	f894 3045 	ldrb.w	r3, [r4, #69]	; 0x45
 80033a2:	2bff      	cmp	r3, #255	; 0xff
 80033a4:	bf08      	it	eq
 80033a6:	f884 9045 	strbeq.w	r9, [r4, #69]	; 0x45
 80033aa:	f001 fb1b 	bl	80049e4 <vPortExitCritical>
 80033ae:	a901      	add	r1, sp, #4
 80033b0:	a802      	add	r0, sp, #8
 80033b2:	f000 ff67 	bl	8004284 <xTaskCheckForTimeOut>
 80033b6:	2800      	cmp	r0, #0
 80033b8:	d14a      	bne.n	8003450 <xQueueGenericSend+0x15a>
 80033ba:	f001 faf3 	bl	80049a4 <vPortEnterCritical>
 80033be:	6ba2      	ldr	r2, [r4, #56]	; 0x38
 80033c0:	6be3      	ldr	r3, [r4, #60]	; 0x3c
 80033c2:	429a      	cmp	r2, r3
 80033c4:	d131      	bne.n	800342a <xQueueGenericSend+0x134>
 80033c6:	f001 fb0d 	bl	80049e4 <vPortExitCritical>
 80033ca:	9901      	ldr	r1, [sp, #4]
 80033cc:	f104 0010 	add.w	r0, r4, #16
 80033d0:	f000 fed0 	bl	8004174 <vTaskPlaceOnEventList>
 80033d4:	4620      	mov	r0, r4
 80033d6:	f7ff fea2 	bl	800311e <prvUnlockQueue>
 80033da:	f000 fdd3 	bl	8003f84 <xTaskResumeAll>
 80033de:	b360      	cbz	r0, 800343a <xQueueGenericSend+0x144>
 80033e0:	2601      	movs	r6, #1
 80033e2:	f001 fadf 	bl	80049a4 <vPortEnterCritical>
 80033e6:	6ba2      	ldr	r2, [r4, #56]	; 0x38
 80033e8:	6be3      	ldr	r3, [r4, #60]	; 0x3c
 80033ea:	429a      	cmp	r2, r3
 80033ec:	d301      	bcc.n	80033f2 <xQueueGenericSend+0xfc>
 80033ee:	2f02      	cmp	r7, #2
 80033f0:	d1bf      	bne.n	8003372 <xQueueGenericSend+0x7c>
 80033f2:	463a      	mov	r2, r7
 80033f4:	4641      	mov	r1, r8
 80033f6:	4620      	mov	r0, r4
 80033f8:	f7ff fe46 	bl	8003088 <prvCopyDataToQueue>
 80033fc:	6a63      	ldr	r3, [r4, #36]	; 0x24
 80033fe:	b11b      	cbz	r3, 8003408 <xQueueGenericSend+0x112>
 8003400:	f104 0024 	add.w	r0, r4, #36	; 0x24
 8003404:	f000 feee 	bl	80041e4 <xTaskRemoveFromEventList>
 8003408:	b148      	cbz	r0, 800341e <xQueueGenericSend+0x128>
 800340a:	f04f 23e0 	mov.w	r3, #3758153728	; 0xe000e000
 800340e:	f04f 5280 	mov.w	r2, #268435456	; 0x10000000
 8003412:	f8c3 2d04 	str.w	r2, [r3, #3332]	; 0xd04
 8003416:	f3bf 8f4f 	dsb	sy
 800341a:	f3bf 8f6f 	isb	sy
 800341e:	f001 fae1 	bl	80049e4 <vPortExitCritical>
 8003422:	2001      	movs	r0, #1
 8003424:	b005      	add	sp, #20
 8003426:	e8bd 83f0 	ldmia.w	sp!, {r4, r5, r6, r7, r8, r9, pc}
 800342a:	f001 fadb 	bl	80049e4 <vPortExitCritical>
 800342e:	4620      	mov	r0, r4
 8003430:	f7ff fe75 	bl	800311e <prvUnlockQueue>
 8003434:	f000 fda6 	bl	8003f84 <xTaskResumeAll>
 8003438:	e7d2      	b.n	80033e0 <xQueueGenericSend+0xea>
 800343a:	f04f 23e0 	mov.w	r3, #3758153728	; 0xe000e000
 800343e:	f04f 5280 	mov.w	r2, #268435456	; 0x10000000
 8003442:	f8c3 2d04 	str.w	r2, [r3, #3332]	; 0xd04
 8003446:	f3bf 8f4f 	dsb	sy
 800344a:	f3bf 8f6f 	isb	sy
 800344e:	e7c7      	b.n	80033e0 <xQueueGenericSend+0xea>
 8003450:	4620      	mov	r0, r4
 8003452:	f7ff fe64 	bl	800311e <prvUnlockQueue>
 8003456:	f000 fd95 	bl	8003f84 <xTaskResumeAll>
 800345a:	e78e      	b.n	800337a <xQueueGenericSend+0x84>

0800345c <xQueueCreateMutexStatic>:
 800345c:	b513      	push	{r0, r1, r4, lr}
 800345e:	2200      	movs	r2, #0
 8003460:	460b      	mov	r3, r1
 8003462:	9000      	str	r0, [sp, #0]
 8003464:	4611      	mov	r1, r2
 8003466:	2001      	movs	r0, #1
 8003468:	f7ff fed0 	bl	800320c <xQueueGenericCreateStatic>
 800346c:	4604      	mov	r4, r0
 800346e:	b138      	cbz	r0, 8003480 <xQueueCreateMutexStatic+0x24>
 8003470:	2300      	movs	r3, #0
 8003472:	6083      	str	r3, [r0, #8]
 8003474:	6003      	str	r3, [r0, #0]
 8003476:	60c3      	str	r3, [r0, #12]
 8003478:	461a      	mov	r2, r3
 800347a:	4619      	mov	r1, r3
 800347c:	f7ff ff3b 	bl	80032f6 <xQueueGenericSend>
 8003480:	4620      	mov	r0, r4
 8003482:	b002      	add	sp, #8
 8003484:	bd10      	pop	{r4, pc}

08003486 <xQueueGiveMutexRecursive>:
 8003486:	b538      	push	{r3, r4, r5, lr}
 8003488:	4604      	mov	r4, r0
 800348a:	b940      	cbnz	r0, 800349e <xQueueGiveMutexRecursive+0x18>
 800348c:	f04f 0350 	mov.w	r3, #80	; 0x50
 8003490:	f383 8811 	msr	BASEPRI, r3
 8003494:	f3bf 8f6f 	isb	sy
 8003498:	f3bf 8f4f 	dsb	sy
 800349c:	e7fe      	b.n	800349c <xQueueGiveMutexRecursive+0x16>
 800349e:	6885      	ldr	r5, [r0, #8]
 80034a0:	f000 ff32 	bl	8004308 <xTaskGetCurrentTaskHandle>
 80034a4:	4285      	cmp	r5, r0
 80034a6:	d10a      	bne.n	80034be <xQueueGiveMutexRecursive+0x38>
 80034a8:	68e3      	ldr	r3, [r4, #12]
 80034aa:	3b01      	subs	r3, #1
 80034ac:	60e3      	str	r3, [r4, #12]
 80034ae:	b923      	cbnz	r3, 80034ba <xQueueGiveMutexRecursive+0x34>
 80034b0:	461a      	mov	r2, r3
 80034b2:	4619      	mov	r1, r3
 80034b4:	4620      	mov	r0, r4
 80034b6:	f7ff ff1e 	bl	80032f6 <xQueueGenericSend>
 80034ba:	2001      	movs	r0, #1
 80034bc:	e000      	b.n	80034c0 <xQueueGiveMutexRecursive+0x3a>
 80034be:	2000      	movs	r0, #0
 80034c0:	bd38      	pop	{r3, r4, r5, pc}

080034c2 <xQueueCreateMutex>:
 80034c2:	b570      	push	{r4, r5, r6, lr}
 80034c4:	4606      	mov	r6, r0
 80034c6:	2050      	movs	r0, #80	; 0x50
 80034c8:	f001 fbd6 	bl	8004c78 <pvPortMalloc>
 80034cc:	4604      	mov	r4, r0
 80034ce:	b198      	cbz	r0, 80034f8 <xQueueCreateMutex+0x36>
 80034d0:	2500      	movs	r5, #0
 80034d2:	2101      	movs	r1, #1
 80034d4:	e9c0 150f 	strd	r1, r5, [r0, #60]	; 0x3c
 80034d8:	f880 5046 	strb.w	r5, [r0, #70]	; 0x46
 80034dc:	6000      	str	r0, [r0, #0]
 80034de:	f7ff fe56 	bl	800318e <xQueueGenericReset>
 80034e2:	f884 604c 	strb.w	r6, [r4, #76]	; 0x4c
 80034e6:	60a5      	str	r5, [r4, #8]
 80034e8:	6025      	str	r5, [r4, #0]
 80034ea:	60e5      	str	r5, [r4, #12]
 80034ec:	462b      	mov	r3, r5
 80034ee:	462a      	mov	r2, r5
 80034f0:	4629      	mov	r1, r5
 80034f2:	4620      	mov	r0, r4
 80034f4:	f7ff feff 	bl	80032f6 <xQueueGenericSend>
 80034f8:	4620      	mov	r0, r4
 80034fa:	bd70      	pop	{r4, r5, r6, pc}

080034fc <xQueueGenericSendFromISR>:
 80034fc:	e92d 43f8 	stmdb	sp!, {r3, r4, r5, r6, r7, r8, r9, lr}
 8003500:	4689      	mov	r9, r1
 8003502:	4690      	mov	r8, r2
 8003504:	461f      	mov	r7, r3
 8003506:	4604      	mov	r4, r0
 8003508:	b940      	cbnz	r0, 800351c <xQueueGenericSendFromISR+0x20>
 800350a:	f04f 0350 	mov.w	r3, #80	; 0x50
 800350e:	f383 8811 	msr	BASEPRI, r3
 8003512:	f3bf 8f6f 	isb	sy
 8003516:	f3bf 8f4f 	dsb	sy
 800351a:	e7fe      	b.n	800351a <xQueueGenericSendFromISR+0x1e>
 800351c:	b951      	cbnz	r1, 8003534 <xQueueGenericSendFromISR+0x38>
 800351e:	6c03      	ldr	r3, [r0, #64]	; 0x40
 8003520:	b143      	cbz	r3, 8003534 <xQueueGenericSendFromISR+0x38>
 8003522:	f04f 0350 	mov.w	r3, #80	; 0x50
 8003526:	f383 8811 	msr	BASEPRI, r3
 800352a:	f3bf 8f6f 	isb	sy
 800352e:	f3bf 8f4f 	dsb	sy
 8003532:	e7fe      	b.n	8003532 <xQueueGenericSendFromISR+0x36>
 8003534:	2f02      	cmp	r7, #2
 8003536:	d10b      	bne.n	8003550 <xQueueGenericSendFromISR+0x54>
 8003538:	6be3      	ldr	r3, [r4, #60]	; 0x3c
 800353a:	2b01      	cmp	r3, #1
 800353c:	d008      	beq.n	8003550 <xQueueGenericSendFromISR+0x54>
 800353e:	f04f 0350 	mov.w	r3, #80	; 0x50
 8003542:	f383 8811 	msr	BASEPRI, r3
 8003546:	f3bf 8f6f 	isb	sy
 800354a:	f3bf 8f4f 	dsb	sy
 800354e:	e7fe      	b.n	800354e <xQueueGenericSendFromISR+0x52>
 8003550:	f001 fb3e 	bl	8004bd0 <vPortValidateInterruptPriority>
 8003554:	f3ef 8611 	mrs	r6, BASEPRI
 8003558:	f04f 0350 	mov.w	r3, #80	; 0x50
 800355c:	f383 8811 	msr	BASEPRI, r3
 8003560:	f3bf 8f6f 	isb	sy
 8003564:	f3bf 8f4f 	dsb	sy
 8003568:	6ba2      	ldr	r2, [r4, #56]	; 0x38
 800356a:	6be3      	ldr	r3, [r4, #60]	; 0x3c
 800356c:	429a      	cmp	r2, r3
 800356e:	d301      	bcc.n	8003574 <xQueueGenericSendFromISR+0x78>
 8003570:	2f02      	cmp	r7, #2
 8003572:	d123      	bne.n	80035bc <xQueueGenericSendFromISR+0xc0>
 8003574:	f894 5045 	ldrb.w	r5, [r4, #69]	; 0x45
 8003578:	6ba3      	ldr	r3, [r4, #56]	; 0x38
 800357a:	b26d      	sxtb	r5, r5
 800357c:	463a      	mov	r2, r7
 800357e:	4649      	mov	r1, r9
 8003580:	4620      	mov	r0, r4
 8003582:	f7ff fd81 	bl	8003088 <prvCopyDataToQueue>
 8003586:	1c6b      	adds	r3, r5, #1
 8003588:	d113      	bne.n	80035b2 <xQueueGenericSendFromISR+0xb6>
 800358a:	6a63      	ldr	r3, [r4, #36]	; 0x24
 800358c:	b90b      	cbnz	r3, 8003592 <xQueueGenericSendFromISR+0x96>
 800358e:	2001      	movs	r0, #1
 8003590:	e00b      	b.n	80035aa <xQueueGenericSendFromISR+0xae>
 8003592:	f104 0024 	add.w	r0, r4, #36	; 0x24
 8003596:	f000 fe25 	bl	80041e4 <xTaskRemoveFromEventList>
 800359a:	2800      	cmp	r0, #0
 800359c:	d0f7      	beq.n	800358e <xQueueGenericSendFromISR+0x92>
 800359e:	f1b8 0f00 	cmp.w	r8, #0
 80035a2:	d0f4      	beq.n	800358e <xQueueGenericSendFromISR+0x92>
 80035a4:	2001      	movs	r0, #1
 80035a6:	f8c8 0000 	str.w	r0, [r8]
 80035aa:	f386 8811 	msr	BASEPRI, r6
 80035ae:	e8bd 83f8 	ldmia.w	sp!, {r3, r4, r5, r6, r7, r8, r9, pc}
 80035b2:	3501      	adds	r5, #1
 80035b4:	b26d      	sxtb	r5, r5
 80035b6:	f884 5045 	strb.w	r5, [r4, #69]	; 0x45
 80035ba:	e7e8      	b.n	800358e <xQueueGenericSendFromISR+0x92>
 80035bc:	2000      	movs	r0, #0
 80035be:	e7f4      	b.n	80035aa <xQueueGenericSendFromISR+0xae>

080035c0 <xQueueReceive>:
 80035c0:	e92d 41ff 	stmdb	sp!, {r0, r1, r2, r3, r4, r5, r6, r7, r8, lr}
 80035c4:	460f      	mov	r7, r1
 80035c6:	9201      	str	r2, [sp, #4]
 80035c8:	4604      	mov	r4, r0
 80035ca:	b940      	cbnz	r0, 80035de <xQueueReceive+0x1e>
 80035cc:	f04f 0350 	mov.w	r3, #80	; 0x50
 80035d0:	f383 8811 	msr	BASEPRI, r3
 80035d4:	f3bf 8f6f 	isb	sy
 80035d8:	f3bf 8f4f 	dsb	sy
 80035dc:	e7fe      	b.n	80035dc <xQueueReceive+0x1c>
 80035de:	b951      	cbnz	r1, 80035f6 <xQueueReceive+0x36>
 80035e0:	6c03      	ldr	r3, [r0, #64]	; 0x40
 80035e2:	b143      	cbz	r3, 80035f6 <xQueueReceive+0x36>
 80035e4:	f04f 0350 	mov.w	r3, #80	; 0x50
 80035e8:	f383 8811 	msr	BASEPRI, r3
 80035ec:	f3bf 8f6f 	isb	sy
 80035f0:	f3bf 8f4f 	dsb	sy
 80035f4:	e7fe      	b.n	80035f4 <xQueueReceive+0x34>
 80035f6:	f000 fe8d 	bl	8004314 <xTaskGetSchedulerState>
 80035fa:	4606      	mov	r6, r0
 80035fc:	b950      	cbnz	r0, 8003614 <xQueueReceive+0x54>
 80035fe:	9b01      	ldr	r3, [sp, #4]
 8003600:	b14b      	cbz	r3, 8003616 <xQueueReceive+0x56>
 8003602:	f04f 0350 	mov.w	r3, #80	; 0x50
 8003606:	f383 8811 	msr	BASEPRI, r3
 800360a:	f3bf 8f6f 	isb	sy
 800360e:	f3bf 8f4f 	dsb	sy
 8003612:	e7fe      	b.n	8003612 <xQueueReceive+0x52>
 8003614:	2600      	movs	r6, #0
 8003616:	f04f 0800 	mov.w	r8, #0
 800361a:	e03d      	b.n	8003698 <xQueueReceive+0xd8>
 800361c:	9d01      	ldr	r5, [sp, #4]
 800361e:	b91d      	cbnz	r5, 8003628 <xQueueReceive+0x68>
 8003620:	f001 f9e0 	bl	80049e4 <vPortExitCritical>
 8003624:	2000      	movs	r0, #0
 8003626:	e056      	b.n	80036d6 <xQueueReceive+0x116>
 8003628:	b916      	cbnz	r6, 8003630 <xQueueReceive+0x70>
 800362a:	a802      	add	r0, sp, #8
 800362c:	f000 fe1e 	bl	800426c <vTaskInternalSetTimeOutState>
 8003630:	f001 f9d8 	bl	80049e4 <vPortExitCritical>
 8003634:	f000 fc02 	bl	8003e3c <vTaskSuspendAll>
 8003638:	f001 f9b4 	bl	80049a4 <vPortEnterCritical>
 800363c:	f894 3044 	ldrb.w	r3, [r4, #68]	; 0x44
 8003640:	2bff      	cmp	r3, #255	; 0xff
 8003642:	bf08      	it	eq
 8003644:	f884 8044 	strbeq.w	r8, [r4, #68]	; 0x44
 8003648:	f894 3045 	ldrb.w	r3, [r4, #69]	; 0x45
 800364c:	2bff      	cmp	r3, #255	; 0xff
 800364e:	bf08      	it	eq
 8003650:	f884 8045 	strbeq.w	r8, [r4, #69]	; 0x45
 8003654:	f001 f9c6 	bl	80049e4 <vPortExitCritical>
 8003658:	a901      	add	r1, sp, #4
 800365a:	a802      	add	r0, sp, #8
 800365c:	f000 fe12 	bl	8004284 <xTaskCheckForTimeOut>
 8003660:	2800      	cmp	r0, #0
 8003662:	d141      	bne.n	80036e8 <xQueueReceive+0x128>
 8003664:	4620      	mov	r0, r4
 8003666:	f7ff fd04 	bl	8003072 <prvIsQueueEmpty>
 800366a:	b3b8      	cbz	r0, 80036dc <xQueueReceive+0x11c>
 800366c:	9901      	ldr	r1, [sp, #4]
 800366e:	f104 0024 	add.w	r0, r4, #36	; 0x24
 8003672:	f000 fd7f 	bl	8004174 <vTaskPlaceOnEventList>
 8003676:	4620      	mov	r0, r4
 8003678:	f7ff fd51 	bl	800311e <prvUnlockQueue>
 800367c:	f000 fc82 	bl	8003f84 <xTaskResumeAll>
 8003680:	b948      	cbnz	r0, 8003696 <xQueueReceive+0xd6>
 8003682:	f04f 23e0 	mov.w	r3, #3758153728	; 0xe000e000
 8003686:	f04f 5280 	mov.w	r2, #268435456	; 0x10000000
 800368a:	f8c3 2d04 	str.w	r2, [r3, #3332]	; 0xd04
 800368e:	f3bf 8f4f 	dsb	sy
 8003692:	f3bf 8f6f 	isb	sy
 8003696:	2601      	movs	r6, #1
 8003698:	f001 f984 	bl	80049a4 <vPortEnterCritical>
 800369c:	6ba5      	ldr	r5, [r4, #56]	; 0x38
 800369e:	2d00      	cmp	r5, #0
 80036a0:	d0bc      	beq.n	800361c <xQueueReceive+0x5c>
 80036a2:	4639      	mov	r1, r7
 80036a4:	4620      	mov	r0, r4
 80036a6:	3d01      	subs	r5, #1
 80036a8:	f7ff fd23 	bl	80030f2 <prvCopyDataFromQueue>
 80036ac:	63a5      	str	r5, [r4, #56]	; 0x38
 80036ae:	6923      	ldr	r3, [r4, #16]
 80036b0:	b173      	cbz	r3, 80036d0 <xQueueReceive+0x110>
 80036b2:	f104 0010 	add.w	r0, r4, #16
 80036b6:	f000 fd95 	bl	80041e4 <xTaskRemoveFromEventList>
 80036ba:	b148      	cbz	r0, 80036d0 <xQueueReceive+0x110>
 80036bc:	f04f 23e0 	mov.w	r3, #3758153728	; 0xe000e000
 80036c0:	f04f 5280 	mov.w	r2, #268435456	; 0x10000000
 80036c4:	f8c3 2d04 	str.w	r2, [r3, #3332]	; 0xd04
 80036c8:	f3bf 8f4f 	dsb	sy
 80036cc:	f3bf 8f6f 	isb	sy
 80036d0:	f001 f988 	bl	80049e4 <vPortExitCritical>
 80036d4:	2001      	movs	r0, #1
 80036d6:	b004      	add	sp, #16
 80036d8:	e8bd 81f0 	ldmia.w	sp!, {r4, r5, r6, r7, r8, pc}
 80036dc:	4620      	mov	r0, r4
 80036de:	f7ff fd1e 	bl	800311e <prvUnlockQueue>
 80036e2:	f000 fc4f 	bl	8003f84 <xTaskResumeAll>
 80036e6:	e7d6      	b.n	8003696 <xQueueReceive+0xd6>
 80036e8:	4620      	mov	r0, r4
 80036ea:	f7ff fd18 	bl	800311e <prvUnlockQueue>
 80036ee:	f000 fc49 	bl	8003f84 <xTaskResumeAll>
 80036f2:	4620      	mov	r0, r4
 80036f4:	f7ff fcbd 	bl	8003072 <prvIsQueueEmpty>
 80036f8:	2800      	cmp	r0, #0
 80036fa:	d0cc      	beq.n	8003696 <xQueueReceive+0xd6>
 80036fc:	e792      	b.n	8003624 <xQueueReceive+0x64>

080036fe <xQueueSemaphoreTake>:
 80036fe:	b5f0      	push	{r4, r5, r6, r7, lr}
 8003700:	b085      	sub	sp, #20
 8003702:	4604      	mov	r4, r0
 8003704:	9101      	str	r1, [sp, #4]
 8003706:	b940      	cbnz	r0, 800371a <xQueueSemaphoreTake+0x1c>
 8003708:	f04f 0350 	mov.w	r3, #80	; 0x50
 800370c:	f383 8811 	msr	BASEPRI, r3
 8003710:	f3bf 8f6f 	isb	sy
 8003714:	f3bf 8f4f 	dsb	sy
 8003718:	e7fe      	b.n	8003718 <xQueueSemaphoreTake+0x1a>
 800371a:	6c05      	ldr	r5, [r0, #64]	; 0x40
 800371c:	b145      	cbz	r5, 8003730 <xQueueSemaphoreTake+0x32>
 800371e:	f04f 0350 	mov.w	r3, #80	; 0x50
 8003722:	f383 8811 	msr	BASEPRI, r3
 8003726:	f3bf 8f6f 	isb	sy
 800372a:	f3bf 8f4f 	dsb	sy
 800372e:	e7fe      	b.n	800372e <xQueueSemaphoreTake+0x30>
 8003730:	f000 fdf0 	bl	8004314 <xTaskGetSchedulerState>
 8003734:	4606      	mov	r6, r0
 8003736:	b950      	cbnz	r0, 800374e <xQueueSemaphoreTake+0x50>
 8003738:	9b01      	ldr	r3, [sp, #4]
 800373a:	b15b      	cbz	r3, 8003754 <xQueueSemaphoreTake+0x56>
 800373c:	f04f 0350 	mov.w	r3, #80	; 0x50
 8003740:	f383 8811 	msr	BASEPRI, r3
 8003744:	f3bf 8f6f 	isb	sy
 8003748:	f3bf 8f4f 	dsb	sy
 800374c:	e7fe      	b.n	800374c <xQueueSemaphoreTake+0x4e>
 800374e:	462e      	mov	r6, r5
 8003750:	2700      	movs	r7, #0
 8003752:	e053      	b.n	80037fc <xQueueSemaphoreTake+0xfe>
 8003754:	4605      	mov	r5, r0
 8003756:	e7fb      	b.n	8003750 <xQueueSemaphoreTake+0x52>
 8003758:	9b01      	ldr	r3, [sp, #4]
 800375a:	b963      	cbnz	r3, 8003776 <xQueueSemaphoreTake+0x78>
 800375c:	b145      	cbz	r5, 8003770 <xQueueSemaphoreTake+0x72>
 800375e:	f04f 0350 	mov.w	r3, #80	; 0x50
 8003762:	f383 8811 	msr	BASEPRI, r3
 8003766:	f3bf 8f6f 	isb	sy
 800376a:	f3bf 8f4f 	dsb	sy
 800376e:	e7fe      	b.n	800376e <xQueueSemaphoreTake+0x70>
 8003770:	f001 f938 	bl	80049e4 <vPortExitCritical>
 8003774:	e062      	b.n	800383c <xQueueSemaphoreTake+0x13e>
 8003776:	b916      	cbnz	r6, 800377e <xQueueSemaphoreTake+0x80>
 8003778:	a802      	add	r0, sp, #8
 800377a:	f000 fd77 	bl	800426c <vTaskInternalSetTimeOutState>
 800377e:	f001 f931 	bl	80049e4 <vPortExitCritical>
 8003782:	f000 fb5b 	bl	8003e3c <vTaskSuspendAll>
 8003786:	f001 f90d 	bl	80049a4 <vPortEnterCritical>
 800378a:	f894 3044 	ldrb.w	r3, [r4, #68]	; 0x44
 800378e:	2bff      	cmp	r3, #255	; 0xff
 8003790:	bf08      	it	eq
 8003792:	f884 7044 	strbeq.w	r7, [r4, #68]	; 0x44
 8003796:	f894 3045 	ldrb.w	r3, [r4, #69]	; 0x45
 800379a:	2bff      	cmp	r3, #255	; 0xff
 800379c:	bf08      	it	eq
 800379e:	f884 7045 	strbeq.w	r7, [r4, #69]	; 0x45
 80037a2:	f001 f91f 	bl	80049e4 <vPortExitCritical>
 80037a6:	a901      	add	r1, sp, #4
 80037a8:	a802      	add	r0, sp, #8
 80037aa:	f000 fd6b 	bl	8004284 <xTaskCheckForTimeOut>
 80037ae:	2800      	cmp	r0, #0
 80037b0:	d14d      	bne.n	800384e <xQueueSemaphoreTake+0x150>
 80037b2:	4620      	mov	r0, r4
 80037b4:	f7ff fc5d 	bl	8003072 <prvIsQueueEmpty>
 80037b8:	2800      	cmp	r0, #0
 80037ba:	d042      	beq.n	8003842 <xQueueSemaphoreTake+0x144>
 80037bc:	6823      	ldr	r3, [r4, #0]
 80037be:	b93b      	cbnz	r3, 80037d0 <xQueueSemaphoreTake+0xd2>
 80037c0:	f001 f8f0 	bl	80049a4 <vPortEnterCritical>
 80037c4:	68a0      	ldr	r0, [r4, #8]
 80037c6:	f000 fdb5 	bl	8004334 <xTaskPriorityInherit>
 80037ca:	4605      	mov	r5, r0
 80037cc:	f001 f90a 	bl	80049e4 <vPortExitCritical>
 80037d0:	9901      	ldr	r1, [sp, #4]
 80037d2:	f104 0024 	add.w	r0, r4, #36	; 0x24
 80037d6:	f000 fccd 	bl	8004174 <vTaskPlaceOnEventList>
 80037da:	4620      	mov	r0, r4
 80037dc:	f7ff fc9f 	bl	800311e <prvUnlockQueue>
 80037e0:	f000 fbd0 	bl	8003f84 <xTaskResumeAll>
 80037e4:	b948      	cbnz	r0, 80037fa <xQueueSemaphoreTake+0xfc>
 80037e6:	f04f 23e0 	mov.w	r3, #3758153728	; 0xe000e000
 80037ea:	f04f 5280 	mov.w	r2, #268435456	; 0x10000000
 80037ee:	f8c3 2d04 	str.w	r2, [r3, #3332]	; 0xd04
 80037f2:	f3bf 8f4f 	dsb	sy
 80037f6:	f3bf 8f6f 	isb	sy
 80037fa:	2601      	movs	r6, #1
 80037fc:	f001 f8d2 	bl	80049a4 <vPortEnterCritical>
 8003800:	6ba3      	ldr	r3, [r4, #56]	; 0x38
 8003802:	2b00      	cmp	r3, #0
 8003804:	d0a8      	beq.n	8003758 <xQueueSemaphoreTake+0x5a>
 8003806:	3b01      	subs	r3, #1
 8003808:	63a3      	str	r3, [r4, #56]	; 0x38
 800380a:	6823      	ldr	r3, [r4, #0]
 800380c:	b913      	cbnz	r3, 8003814 <xQueueSemaphoreTake+0x116>
 800380e:	f000 fe69 	bl	80044e4 <pvTaskIncrementMutexHeldCount>
 8003812:	60a0      	str	r0, [r4, #8]
 8003814:	6923      	ldr	r3, [r4, #16]
 8003816:	b173      	cbz	r3, 8003836 <xQueueSemaphoreTake+0x138>
 8003818:	f104 0010 	add.w	r0, r4, #16
 800381c:	f000 fce2 	bl	80041e4 <xTaskRemoveFromEventList>
 8003820:	b148      	cbz	r0, 8003836 <xQueueSemaphoreTake+0x138>
 8003822:	f04f 23e0 	mov.w	r3, #3758153728	; 0xe000e000
 8003826:	f04f 5280 	mov.w	r2, #268435456	; 0x10000000
 800382a:	f8c3 2d04 	str.w	r2, [r3, #3332]	; 0xd04
 800382e:	f3bf 8f4f 	dsb	sy
 8003832:	f3bf 8f6f 	isb	sy
 8003836:	f001 f8d5 	bl	80049e4 <vPortExitCritical>
 800383a:	2501      	movs	r5, #1
 800383c:	4628      	mov	r0, r5
 800383e:	b005      	add	sp, #20
 8003840:	bdf0      	pop	{r4, r5, r6, r7, pc}
 8003842:	4620      	mov	r0, r4
 8003844:	f7ff fc6b 	bl	800311e <prvUnlockQueue>
 8003848:	f000 fb9c 	bl	8003f84 <xTaskResumeAll>
 800384c:	e7d5      	b.n	80037fa <xQueueSemaphoreTake+0xfc>
 800384e:	4620      	mov	r0, r4
 8003850:	f7ff fc65 	bl	800311e <prvUnlockQueue>
 8003854:	f000 fb96 	bl	8003f84 <xTaskResumeAll>
 8003858:	4620      	mov	r0, r4
 800385a:	f7ff fc0a 	bl	8003072 <prvIsQueueEmpty>
 800385e:	2800      	cmp	r0, #0
 8003860:	d0cb      	beq.n	80037fa <xQueueSemaphoreTake+0xfc>
 8003862:	2d00      	cmp	r5, #0
 8003864:	d0ea      	beq.n	800383c <xQueueSemaphoreTake+0x13e>
 8003866:	f001 f89d 	bl	80049a4 <vPortEnterCritical>
 800386a:	6a61      	ldr	r1, [r4, #36]	; 0x24
 800386c:	b119      	cbz	r1, 8003876 <xQueueSemaphoreTake+0x178>
 800386e:	6b23      	ldr	r3, [r4, #48]	; 0x30
 8003870:	6819      	ldr	r1, [r3, #0]
 8003872:	f1c1 0138 	rsb	r1, r1, #56	; 0x38
 8003876:	68a0      	ldr	r0, [r4, #8]
 8003878:	f000 fde2 	bl	8004440 <vTaskPriorityDisinheritAfterTimeout>
 800387c:	2500      	movs	r5, #0
 800387e:	f001 f8b1 	bl	80049e4 <vPortExitCritical>
 8003882:	e7db      	b.n	800383c <xQueueSemaphoreTake+0x13e>

08003884 <xQueueTakeMutexRecursive>:
 8003884:	b537      	push	{r0, r1, r2, r4, r5, lr}
 8003886:	4604      	mov	r4, r0
 8003888:	b940      	cbnz	r0, 800389c <xQueueTakeMutexRecursive+0x18>
 800388a:	f04f 0350 	mov.w	r3, #80	; 0x50
 800388e:	f383 8811 	msr	BASEPRI, r3
 8003892:	f3bf 8f6f 	isb	sy
 8003896:	f3bf 8f4f 	dsb	sy
 800389a:	e7fe      	b.n	800389a <xQueueTakeMutexRecursive+0x16>
 800389c:	6885      	ldr	r5, [r0, #8]
 800389e:	9101      	str	r1, [sp, #4]
 80038a0:	f000 fd32 	bl	8004308 <xTaskGetCurrentTaskHandle>
 80038a4:	4285      	cmp	r5, r0
 80038a6:	9901      	ldr	r1, [sp, #4]
 80038a8:	d105      	bne.n	80038b6 <xQueueTakeMutexRecursive+0x32>
 80038aa:	68e3      	ldr	r3, [r4, #12]
 80038ac:	3301      	adds	r3, #1
 80038ae:	60e3      	str	r3, [r4, #12]
 80038b0:	2001      	movs	r0, #1
 80038b2:	b003      	add	sp, #12
 80038b4:	bd30      	pop	{r4, r5, pc}
 80038b6:	4620      	mov	r0, r4
 80038b8:	f7ff ff21 	bl	80036fe <xQueueSemaphoreTake>
 80038bc:	2800      	cmp	r0, #0
 80038be:	d0f8      	beq.n	80038b2 <xQueueTakeMutexRecursive+0x2e>
 80038c0:	68e3      	ldr	r3, [r4, #12]
 80038c2:	3301      	adds	r3, #1
 80038c4:	60e3      	str	r3, [r4, #12]
 80038c6:	e7f4      	b.n	80038b2 <xQueueTakeMutexRecursive+0x2e>

080038c8 <xQueueReceiveFromISR>:
 80038c8:	e92d 43f8 	stmdb	sp!, {r3, r4, r5, r6, r7, r8, r9, lr}
 80038cc:	4689      	mov	r9, r1
 80038ce:	4690      	mov	r8, r2
 80038d0:	4605      	mov	r5, r0
 80038d2:	b940      	cbnz	r0, 80038e6 <xQueueReceiveFromISR+0x1e>
 80038d4:	f04f 0350 	mov.w	r3, #80	; 0x50
 80038d8:	f383 8811 	msr	BASEPRI, r3
 80038dc:	f3bf 8f6f 	isb	sy
 80038e0:	f3bf 8f4f 	dsb	sy
 80038e4:	e7fe      	b.n	80038e4 <xQueueReceiveFromISR+0x1c>
 80038e6:	b951      	cbnz	r1, 80038fe <xQueueReceiveFromISR+0x36>
 80038e8:	6c03      	ldr	r3, [r0, #64]	; 0x40
 80038ea:	b143      	cbz	r3, 80038fe <xQueueReceiveFromISR+0x36>
 80038ec:	f04f 0350 	mov.w	r3, #80	; 0x50
 80038f0:	f383 8811 	msr	BASEPRI, r3
 80038f4:	f3bf 8f6f 	isb	sy
 80038f8:	f3bf 8f4f 	dsb	sy
 80038fc:	e7fe      	b.n	80038fc <xQueueReceiveFromISR+0x34>
 80038fe:	f001 f967 	bl	8004bd0 <vPortValidateInterruptPriority>
 8003902:	f3ef 8711 	mrs	r7, BASEPRI
 8003906:	f04f 0350 	mov.w	r3, #80	; 0x50
 800390a:	f383 8811 	msr	BASEPRI, r3
 800390e:	f3bf 8f6f 	isb	sy
 8003912:	f3bf 8f4f 	dsb	sy
 8003916:	6bac      	ldr	r4, [r5, #56]	; 0x38
 8003918:	b31c      	cbz	r4, 8003962 <xQueueReceiveFromISR+0x9a>
 800391a:	f895 6044 	ldrb.w	r6, [r5, #68]	; 0x44
 800391e:	4649      	mov	r1, r9
 8003920:	b276      	sxtb	r6, r6
 8003922:	4628      	mov	r0, r5
 8003924:	f7ff fbe5 	bl	80030f2 <prvCopyDataFromQueue>
 8003928:	3c01      	subs	r4, #1
 800392a:	1c73      	adds	r3, r6, #1
 800392c:	63ac      	str	r4, [r5, #56]	; 0x38
 800392e:	d113      	bne.n	8003958 <xQueueReceiveFromISR+0x90>
 8003930:	692b      	ldr	r3, [r5, #16]
 8003932:	b90b      	cbnz	r3, 8003938 <xQueueReceiveFromISR+0x70>
 8003934:	2001      	movs	r0, #1
 8003936:	e00b      	b.n	8003950 <xQueueReceiveFromISR+0x88>
 8003938:	f105 0010 	add.w	r0, r5, #16
 800393c:	f000 fc52 	bl	80041e4 <xTaskRemoveFromEventList>
 8003940:	2800      	cmp	r0, #0
 8003942:	d0f7      	beq.n	8003934 <xQueueReceiveFromISR+0x6c>
 8003944:	f1b8 0f00 	cmp.w	r8, #0
 8003948:	d0f4      	beq.n	8003934 <xQueueReceiveFromISR+0x6c>
 800394a:	2001      	movs	r0, #1
 800394c:	f8c8 0000 	str.w	r0, [r8]
 8003950:	f387 8811 	msr	BASEPRI, r7
 8003954:	e8bd 83f8 	ldmia.w	sp!, {r3, r4, r5, r6, r7, r8, r9, pc}
 8003958:	3601      	adds	r6, #1
 800395a:	b276      	sxtb	r6, r6
 800395c:	f885 6044 	strb.w	r6, [r5, #68]	; 0x44
 8003960:	e7e8      	b.n	8003934 <xQueueReceiveFromISR+0x6c>
 8003962:	4620      	mov	r0, r4
 8003964:	e7f4      	b.n	8003950 <xQueueReceiveFromISR+0x88>

08003966 <uxQueueMessagesWaiting>:
 8003966:	b513      	push	{r0, r1, r4, lr}
 8003968:	4604      	mov	r4, r0
 800396a:	b940      	cbnz	r0, 800397e <uxQueueMessagesWaiting+0x18>
 800396c:	f04f 0350 	mov.w	r3, #80	; 0x50
 8003970:	f383 8811 	msr	BASEPRI, r3
 8003974:	f3bf 8f6f 	isb	sy
 8003978:	f3bf 8f4f 	dsb	sy
 800397c:	e7fe      	b.n	800397c <uxQueueMessagesWaiting+0x16>
 800397e:	f001 f811 	bl	80049a4 <vPortEnterCritical>
 8003982:	6ba0      	ldr	r0, [r4, #56]	; 0x38
 8003984:	9001      	str	r0, [sp, #4]
 8003986:	f001 f82d 	bl	80049e4 <vPortExitCritical>
 800398a:	9801      	ldr	r0, [sp, #4]
 800398c:	b002      	add	sp, #8
 800398e:	bd10      	pop	{r4, pc}

08003990 <uxQueueMessagesWaitingFromISR>:
 8003990:	b940      	cbnz	r0, 80039a4 <uxQueueMessagesWaitingFromISR+0x14>
 8003992:	f04f 0350 	mov.w	r3, #80	; 0x50
 8003996:	f383 8811 	msr	BASEPRI, r3
 800399a:	f3bf 8f6f 	isb	sy
 800399e:	f3bf 8f4f 	dsb	sy
 80039a2:	e7fe      	b.n	80039a2 <uxQueueMessagesWaitingFromISR+0x12>
 80039a4:	6b80      	ldr	r0, [r0, #56]	; 0x38
 80039a6:	4770      	bx	lr

080039a8 <vQueueAddToRegistry>:
 80039a8:	b510      	push	{r4, lr}
 80039aa:	4a07      	ldr	r2, [pc, #28]	; (80039c8 <vQueueAddToRegistry+0x20>)
 80039ac:	2300      	movs	r3, #0
 80039ae:	f852 4033 	ldr.w	r4, [r2, r3, lsl #3]
 80039b2:	b92c      	cbnz	r4, 80039c0 <vQueueAddToRegistry+0x18>
 80039b4:	f842 1033 	str.w	r1, [r2, r3, lsl #3]
 80039b8:	eb02 02c3 	add.w	r2, r2, r3, lsl #3
 80039bc:	6050      	str	r0, [r2, #4]
 80039be:	bd10      	pop	{r4, pc}
 80039c0:	3301      	adds	r3, #1
 80039c2:	2b08      	cmp	r3, #8
 80039c4:	d1f3      	bne.n	80039ae <vQueueAddToRegistry+0x6>
 80039c6:	e7fa      	b.n	80039be <vQueueAddToRegistry+0x16>
 80039c8:	200008f0 	.word	0x200008f0

080039cc <vQueueWaitForMessageRestricted>:
 80039cc:	b570      	push	{r4, r5, r6, lr}
 80039ce:	4604      	mov	r4, r0
 80039d0:	460d      	mov	r5, r1
 80039d2:	4616      	mov	r6, r2
 80039d4:	f000 ffe6 	bl	80049a4 <vPortEnterCritical>
 80039d8:	f894 3044 	ldrb.w	r3, [r4, #68]	; 0x44
 80039dc:	2bff      	cmp	r3, #255	; 0xff
 80039de:	bf04      	itt	eq
 80039e0:	2300      	moveq	r3, #0
 80039e2:	f884 3044 	strbeq.w	r3, [r4, #68]	; 0x44
 80039e6:	f894 3045 	ldrb.w	r3, [r4, #69]	; 0x45
 80039ea:	2bff      	cmp	r3, #255	; 0xff
 80039ec:	bf04      	itt	eq
 80039ee:	2300      	moveq	r3, #0
 80039f0:	f884 3045 	strbeq.w	r3, [r4, #69]	; 0x45
 80039f4:	f000 fff6 	bl	80049e4 <vPortExitCritical>
 80039f8:	6ba3      	ldr	r3, [r4, #56]	; 0x38
 80039fa:	b92b      	cbnz	r3, 8003a08 <vQueueWaitForMessageRestricted+0x3c>
 80039fc:	4632      	mov	r2, r6
 80039fe:	4629      	mov	r1, r5
 8003a00:	f104 0024 	add.w	r0, r4, #36	; 0x24
 8003a04:	f000 fbd0 	bl	80041a8 <vTaskPlaceOnEventListRestricted>
 8003a08:	4620      	mov	r0, r4
 8003a0a:	e8bd 4070 	ldmia.w	sp!, {r4, r5, r6, lr}
 8003a0e:	f7ff bb86 	b.w	800311e <prvUnlockQueue>
	...

08003a14 <prvAddNewTaskToReadyList>:
 8003a14:	e92d 41f0 	stmdb	sp!, {r4, r5, r6, r7, r8, lr}
 8003a18:	4604      	mov	r4, r0
 8003a1a:	f000 ffc3 	bl	80049a4 <vPortEnterCritical>
 8003a1e:	4b30      	ldr	r3, [pc, #192]	; (8003ae0 <prvAddNewTaskToReadyList+0xcc>)
 8003a20:	4e30      	ldr	r6, [pc, #192]	; (8003ae4 <prvAddNewTaskToReadyList+0xd0>)
 8003a22:	681a      	ldr	r2, [r3, #0]
 8003a24:	4f30      	ldr	r7, [pc, #192]	; (8003ae8 <prvAddNewTaskToReadyList+0xd4>)
 8003a26:	3201      	adds	r2, #1
 8003a28:	601a      	str	r2, [r3, #0]
 8003a2a:	6835      	ldr	r5, [r6, #0]
 8003a2c:	2d00      	cmp	r5, #0
 8003a2e:	d14b      	bne.n	8003ac8 <prvAddNewTaskToReadyList+0xb4>
 8003a30:	6034      	str	r4, [r6, #0]
 8003a32:	681b      	ldr	r3, [r3, #0]
 8003a34:	2b01      	cmp	r3, #1
 8003a36:	d11f      	bne.n	8003a78 <prvAddNewTaskToReadyList+0x64>
 8003a38:	46b8      	mov	r8, r7
 8003a3a:	4640      	mov	r0, r8
 8003a3c:	3501      	adds	r5, #1
 8003a3e:	f7ff fad7 	bl	8002ff0 <vListInitialise>
 8003a42:	2d38      	cmp	r5, #56	; 0x38
 8003a44:	f108 0814 	add.w	r8, r8, #20
 8003a48:	d1f7      	bne.n	8003a3a <prvAddNewTaskToReadyList+0x26>
 8003a4a:	f8df 80c4 	ldr.w	r8, [pc, #196]	; 8003b10 <prvAddNewTaskToReadyList+0xfc>
 8003a4e:	4d27      	ldr	r5, [pc, #156]	; (8003aec <prvAddNewTaskToReadyList+0xd8>)
 8003a50:	4640      	mov	r0, r8
 8003a52:	f7ff facd 	bl	8002ff0 <vListInitialise>
 8003a56:	4628      	mov	r0, r5
 8003a58:	f7ff faca 	bl	8002ff0 <vListInitialise>
 8003a5c:	4824      	ldr	r0, [pc, #144]	; (8003af0 <prvAddNewTaskToReadyList+0xdc>)
 8003a5e:	f7ff fac7 	bl	8002ff0 <vListInitialise>
 8003a62:	4824      	ldr	r0, [pc, #144]	; (8003af4 <prvAddNewTaskToReadyList+0xe0>)
 8003a64:	f7ff fac4 	bl	8002ff0 <vListInitialise>
 8003a68:	4823      	ldr	r0, [pc, #140]	; (8003af8 <prvAddNewTaskToReadyList+0xe4>)
 8003a6a:	f7ff fac1 	bl	8002ff0 <vListInitialise>
 8003a6e:	4b23      	ldr	r3, [pc, #140]	; (8003afc <prvAddNewTaskToReadyList+0xe8>)
 8003a70:	f8c3 8000 	str.w	r8, [r3]
 8003a74:	4b22      	ldr	r3, [pc, #136]	; (8003b00 <prvAddNewTaskToReadyList+0xec>)
 8003a76:	601d      	str	r5, [r3, #0]
 8003a78:	4a22      	ldr	r2, [pc, #136]	; (8003b04 <prvAddNewTaskToReadyList+0xf0>)
 8003a7a:	6813      	ldr	r3, [r2, #0]
 8003a7c:	3301      	adds	r3, #1
 8003a7e:	6013      	str	r3, [r2, #0]
 8003a80:	4a21      	ldr	r2, [pc, #132]	; (8003b08 <prvAddNewTaskToReadyList+0xf4>)
 8003a82:	64a3      	str	r3, [r4, #72]	; 0x48
 8003a84:	6811      	ldr	r1, [r2, #0]
 8003a86:	6ae3      	ldr	r3, [r4, #44]	; 0x2c
 8003a88:	2014      	movs	r0, #20
 8003a8a:	428b      	cmp	r3, r1
 8003a8c:	fb00 7003 	mla	r0, r0, r3, r7
 8003a90:	f104 0104 	add.w	r1, r4, #4
 8003a94:	bf88      	it	hi
 8003a96:	6013      	strhi	r3, [r2, #0]
 8003a98:	f7ff fab8 	bl	800300c <vListInsertEnd>
 8003a9c:	f000 ffa2 	bl	80049e4 <vPortExitCritical>
 8003aa0:	4b1a      	ldr	r3, [pc, #104]	; (8003b0c <prvAddNewTaskToReadyList+0xf8>)
 8003aa2:	681b      	ldr	r3, [r3, #0]
 8003aa4:	b173      	cbz	r3, 8003ac4 <prvAddNewTaskToReadyList+0xb0>
 8003aa6:	6833      	ldr	r3, [r6, #0]
 8003aa8:	6ada      	ldr	r2, [r3, #44]	; 0x2c
 8003aaa:	6ae3      	ldr	r3, [r4, #44]	; 0x2c
 8003aac:	429a      	cmp	r2, r3
 8003aae:	d209      	bcs.n	8003ac4 <prvAddNewTaskToReadyList+0xb0>
 8003ab0:	f04f 23e0 	mov.w	r3, #3758153728	; 0xe000e000
 8003ab4:	f04f 5280 	mov.w	r2, #268435456	; 0x10000000
 8003ab8:	f8c3 2d04 	str.w	r2, [r3, #3332]	; 0xd04
 8003abc:	f3bf 8f4f 	dsb	sy
 8003ac0:	f3bf 8f6f 	isb	sy
 8003ac4:	e8bd 81f0 	ldmia.w	sp!, {r4, r5, r6, r7, r8, pc}
 8003ac8:	4b10      	ldr	r3, [pc, #64]	; (8003b0c <prvAddNewTaskToReadyList+0xf8>)
 8003aca:	681a      	ldr	r2, [r3, #0]
 8003acc:	6ae3      	ldr	r3, [r4, #44]	; 0x2c
 8003ace:	2a00      	cmp	r2, #0
 8003ad0:	d1d2      	bne.n	8003a78 <prvAddNewTaskToReadyList+0x64>
 8003ad2:	6832      	ldr	r2, [r6, #0]
 8003ad4:	6ad2      	ldr	r2, [r2, #44]	; 0x2c
 8003ad6:	429a      	cmp	r2, r3
 8003ad8:	bf98      	it	ls
 8003ada:	6034      	strls	r4, [r6, #0]
 8003adc:	e7cc      	b.n	8003a78 <prvAddNewTaskToReadyList+0x64>
 8003ade:	bf00      	nop
 8003ae0:	20000da0 	.word	0x20000da0
 8003ae4:	20000930 	.word	0x20000930
 8003ae8:	2000093c 	.word	0x2000093c
 8003aec:	20000dc8 	.word	0x20000dc8
 8003af0:	20000de8 	.word	0x20000de8
 8003af4:	20000e14 	.word	0x20000e14
 8003af8:	20000e00 	.word	0x20000e00
 8003afc:	20000934 	.word	0x20000934
 8003b00:	20000938 	.word	0x20000938
 8003b04:	20000dac 	.word	0x20000dac
 8003b08:	20000db0 	.word	0x20000db0
 8003b0c:	20000dfc 	.word	0x20000dfc
 8003b10:	20000db4 	.word	0x20000db4

08003b14 <prvAddCurrentTaskToDelayedList>:
 8003b14:	b5f8      	push	{r3, r4, r5, r6, r7, lr}
 8003b16:	4b15      	ldr	r3, [pc, #84]	; (8003b6c <prvAddCurrentTaskToDelayedList+0x58>)
 8003b18:	4d15      	ldr	r5, [pc, #84]	; (8003b70 <prvAddCurrentTaskToDelayedList+0x5c>)
 8003b1a:	681c      	ldr	r4, [r3, #0]
 8003b1c:	4606      	mov	r6, r0
 8003b1e:	6828      	ldr	r0, [r5, #0]
 8003b20:	3004      	adds	r0, #4
 8003b22:	460f      	mov	r7, r1
 8003b24:	f7ff fa95 	bl	8003052 <uxListRemove>
 8003b28:	1c73      	adds	r3, r6, #1
 8003b2a:	d107      	bne.n	8003b3c <prvAddCurrentTaskToDelayedList+0x28>
 8003b2c:	b137      	cbz	r7, 8003b3c <prvAddCurrentTaskToDelayedList+0x28>
 8003b2e:	6829      	ldr	r1, [r5, #0]
 8003b30:	4810      	ldr	r0, [pc, #64]	; (8003b74 <prvAddCurrentTaskToDelayedList+0x60>)
 8003b32:	e8bd 40f8 	ldmia.w	sp!, {r3, r4, r5, r6, r7, lr}
 8003b36:	3104      	adds	r1, #4
 8003b38:	f7ff ba68 	b.w	800300c <vListInsertEnd>
 8003b3c:	682b      	ldr	r3, [r5, #0]
 8003b3e:	19a4      	adds	r4, r4, r6
 8003b40:	605c      	str	r4, [r3, #4]
 8003b42:	d307      	bcc.n	8003b54 <prvAddCurrentTaskToDelayedList+0x40>
 8003b44:	4b0c      	ldr	r3, [pc, #48]	; (8003b78 <prvAddCurrentTaskToDelayedList+0x64>)
 8003b46:	6818      	ldr	r0, [r3, #0]
 8003b48:	6829      	ldr	r1, [r5, #0]
 8003b4a:	e8bd 40f8 	ldmia.w	sp!, {r3, r4, r5, r6, r7, lr}
 8003b4e:	3104      	adds	r1, #4
 8003b50:	f7ff ba68 	b.w	8003024 <vListInsert>
 8003b54:	4b09      	ldr	r3, [pc, #36]	; (8003b7c <prvAddCurrentTaskToDelayedList+0x68>)
 8003b56:	6818      	ldr	r0, [r3, #0]
 8003b58:	6829      	ldr	r1, [r5, #0]
 8003b5a:	3104      	adds	r1, #4
 8003b5c:	f7ff fa62 	bl	8003024 <vListInsert>
 8003b60:	4b07      	ldr	r3, [pc, #28]	; (8003b80 <prvAddCurrentTaskToDelayedList+0x6c>)
 8003b62:	681a      	ldr	r2, [r3, #0]
 8003b64:	42a2      	cmp	r2, r4
 8003b66:	bf88      	it	hi
 8003b68:	601c      	strhi	r4, [r3, #0]
 8003b6a:	bdf8      	pop	{r3, r4, r5, r6, r7, pc}
 8003b6c:	20000e28 	.word	0x20000e28
 8003b70:	20000930 	.word	0x20000930
 8003b74:	20000e00 	.word	0x20000e00
 8003b78:	20000938 	.word	0x20000938
 8003b7c:	20000934 	.word	0x20000934
 8003b80:	20000ddc 	.word	0x20000ddc

08003b84 <prvResetNextTaskUnblockTime>:
 8003b84:	4a06      	ldr	r2, [pc, #24]	; (8003ba0 <prvResetNextTaskUnblockTime+0x1c>)
 8003b86:	6813      	ldr	r3, [r2, #0]
 8003b88:	6819      	ldr	r1, [r3, #0]
 8003b8a:	4b06      	ldr	r3, [pc, #24]	; (8003ba4 <prvResetNextTaskUnblockTime+0x20>)
 8003b8c:	b919      	cbnz	r1, 8003b96 <prvResetNextTaskUnblockTime+0x12>
 8003b8e:	f04f 32ff 	mov.w	r2, #4294967295
 8003b92:	601a      	str	r2, [r3, #0]
 8003b94:	4770      	bx	lr
 8003b96:	6812      	ldr	r2, [r2, #0]
 8003b98:	68d2      	ldr	r2, [r2, #12]
 8003b9a:	68d2      	ldr	r2, [r2, #12]
 8003b9c:	6852      	ldr	r2, [r2, #4]
 8003b9e:	e7f8      	b.n	8003b92 <prvResetNextTaskUnblockTime+0xe>
 8003ba0:	20000934 	.word	0x20000934
 8003ba4:	20000ddc 	.word	0x20000ddc

08003ba8 <prvDeleteTCB>:
 8003ba8:	b510      	push	{r4, lr}
 8003baa:	f890 3061 	ldrb.w	r3, [r0, #97]	; 0x61
 8003bae:	4604      	mov	r4, r0
 8003bb0:	b93b      	cbnz	r3, 8003bc2 <prvDeleteTCB+0x1a>
 8003bb2:	6b00      	ldr	r0, [r0, #48]	; 0x30
 8003bb4:	f001 f8f8 	bl	8004da8 <vPortFree>
 8003bb8:	4620      	mov	r0, r4
 8003bba:	e8bd 4010 	ldmia.w	sp!, {r4, lr}
 8003bbe:	f001 b8f3 	b.w	8004da8 <vPortFree>
 8003bc2:	2b01      	cmp	r3, #1
 8003bc4:	d0f9      	beq.n	8003bba <prvDeleteTCB+0x12>
 8003bc6:	2b02      	cmp	r3, #2
 8003bc8:	d008      	beq.n	8003bdc <prvDeleteTCB+0x34>
 8003bca:	f04f 0350 	mov.w	r3, #80	; 0x50
 8003bce:	f383 8811 	msr	BASEPRI, r3
 8003bd2:	f3bf 8f6f 	isb	sy
 8003bd6:	f3bf 8f4f 	dsb	sy
 8003bda:	e7fe      	b.n	8003bda <prvDeleteTCB+0x32>
 8003bdc:	bd10      	pop	{r4, pc}
	...

08003be0 <prvIdleTask>:
 8003be0:	b580      	push	{r7, lr}
 8003be2:	4c13      	ldr	r4, [pc, #76]	; (8003c30 <prvIdleTask+0x50>)
 8003be4:	4f13      	ldr	r7, [pc, #76]	; (8003c34 <prvIdleTask+0x54>)
 8003be6:	4d14      	ldr	r5, [pc, #80]	; (8003c38 <prvIdleTask+0x58>)
 8003be8:	6823      	ldr	r3, [r4, #0]
 8003bea:	b973      	cbnz	r3, 8003c0a <prvIdleTask+0x2a>
 8003bec:	4b13      	ldr	r3, [pc, #76]	; (8003c3c <prvIdleTask+0x5c>)
 8003bee:	681b      	ldr	r3, [r3, #0]
 8003bf0:	2b01      	cmp	r3, #1
 8003bf2:	d9f8      	bls.n	8003be6 <prvIdleTask+0x6>
 8003bf4:	f04f 23e0 	mov.w	r3, #3758153728	; 0xe000e000
 8003bf8:	f04f 5280 	mov.w	r2, #268435456	; 0x10000000
 8003bfc:	f8c3 2d04 	str.w	r2, [r3, #3332]	; 0xd04
 8003c00:	f3bf 8f4f 	dsb	sy
 8003c04:	f3bf 8f6f 	isb	sy
 8003c08:	e7ed      	b.n	8003be6 <prvIdleTask+0x6>
 8003c0a:	f000 fecb 	bl	80049a4 <vPortEnterCritical>
 8003c0e:	68fb      	ldr	r3, [r7, #12]
 8003c10:	68de      	ldr	r6, [r3, #12]
 8003c12:	1d30      	adds	r0, r6, #4
 8003c14:	f7ff fa1d 	bl	8003052 <uxListRemove>
 8003c18:	682b      	ldr	r3, [r5, #0]
 8003c1a:	3b01      	subs	r3, #1
 8003c1c:	602b      	str	r3, [r5, #0]
 8003c1e:	6823      	ldr	r3, [r4, #0]
 8003c20:	3b01      	subs	r3, #1
 8003c22:	6023      	str	r3, [r4, #0]
 8003c24:	f000 fede 	bl	80049e4 <vPortExitCritical>
 8003c28:	4630      	mov	r0, r6
 8003c2a:	f7ff ffbd 	bl	8003ba8 <prvDeleteTCB>
 8003c2e:	e7db      	b.n	8003be8 <prvIdleTask+0x8>
 8003c30:	20000da4 	.word	0x20000da4
 8003c34:	20000e14 	.word	0x20000e14
 8003c38:	20000da0 	.word	0x20000da0
 8003c3c:	2000093c 	.word	0x2000093c

08003c40 <prvInitialiseNewTask.constprop.0>:
 8003c40:	e92d 47f0 	stmdb	sp!, {r4, r5, r6, r7, r8, r9, sl, lr}
 8003c44:	e9dd 8409 	ldrd	r8, r4, [sp, #36]	; 0x24
 8003c48:	ea4f 0982 	mov.w	r9, r2, lsl #2
 8003c4c:	464a      	mov	r2, r9
 8003c4e:	4606      	mov	r6, r0
 8003c50:	460d      	mov	r5, r1
 8003c52:	6b20      	ldr	r0, [r4, #48]	; 0x30
 8003c54:	21a5      	movs	r1, #165	; 0xa5
 8003c56:	461f      	mov	r7, r3
 8003c58:	f001 f8e4 	bl	8004e24 <memset>
 8003c5c:	6b23      	ldr	r3, [r4, #48]	; 0x30
 8003c5e:	f1a9 0904 	sub.w	r9, r9, #4
 8003c62:	444b      	add	r3, r9
 8003c64:	f023 0907 	bic.w	r9, r3, #7
 8003c68:	f8c4 9044 	str.w	r9, [r4, #68]	; 0x44
 8003c6c:	b3b5      	cbz	r5, 8003cdc <prvInitialiseNewTask.constprop.0+0x9c>
 8003c6e:	1e6b      	subs	r3, r5, #1
 8003c70:	f104 0233 	add.w	r2, r4, #51	; 0x33
 8003c74:	350f      	adds	r5, #15
 8003c76:	f813 1f01 	ldrb.w	r1, [r3, #1]!
 8003c7a:	f802 1f01 	strb.w	r1, [r2, #1]!
 8003c7e:	b109      	cbz	r1, 8003c84 <prvInitialiseNewTask.constprop.0+0x44>
 8003c80:	42ab      	cmp	r3, r5
 8003c82:	d1f8      	bne.n	8003c76 <prvInitialiseNewTask.constprop.0+0x36>
 8003c84:	2300      	movs	r3, #0
 8003c86:	f884 3043 	strb.w	r3, [r4, #67]	; 0x43
 8003c8a:	9d08      	ldr	r5, [sp, #32]
 8003c8c:	2d37      	cmp	r5, #55	; 0x37
 8003c8e:	bf28      	it	cs
 8003c90:	2537      	movcs	r5, #55	; 0x37
 8003c92:	f04f 0a00 	mov.w	sl, #0
 8003c96:	62e5      	str	r5, [r4, #44]	; 0x2c
 8003c98:	6525      	str	r5, [r4, #80]	; 0x50
 8003c9a:	1d20      	adds	r0, r4, #4
 8003c9c:	f8c4 a054 	str.w	sl, [r4, #84]	; 0x54
 8003ca0:	f7ff f9b1 	bl	8003006 <vListInitialiseItem>
 8003ca4:	f1c5 0538 	rsb	r5, r5, #56	; 0x38
 8003ca8:	f104 0018 	add.w	r0, r4, #24
 8003cac:	f7ff f9ab 	bl	8003006 <vListInitialiseItem>
 8003cb0:	f8c4 a05c 	str.w	sl, [r4, #92]	; 0x5c
 8003cb4:	6124      	str	r4, [r4, #16]
 8003cb6:	61a5      	str	r5, [r4, #24]
 8003cb8:	6264      	str	r4, [r4, #36]	; 0x24
 8003cba:	f8c4 a058 	str.w	sl, [r4, #88]	; 0x58
 8003cbe:	f884 a060 	strb.w	sl, [r4, #96]	; 0x60
 8003cc2:	463a      	mov	r2, r7
 8003cc4:	4631      	mov	r1, r6
 8003cc6:	4648      	mov	r0, r9
 8003cc8:	f000 fe42 	bl	8004950 <pxPortInitialiseStack>
 8003ccc:	6020      	str	r0, [r4, #0]
 8003cce:	f1b8 0f00 	cmp.w	r8, #0
 8003cd2:	d001      	beq.n	8003cd8 <prvInitialiseNewTask.constprop.0+0x98>
 8003cd4:	f8c8 4000 	str.w	r4, [r8]
 8003cd8:	e8bd 87f0 	ldmia.w	sp!, {r4, r5, r6, r7, r8, r9, sl, pc}
 8003cdc:	f884 5034 	strb.w	r5, [r4, #52]	; 0x34
 8003ce0:	e7d3      	b.n	8003c8a <prvInitialiseNewTask.constprop.0+0x4a>

08003ce2 <xTaskCreateStatic>:
 8003ce2:	b570      	push	{r4, r5, r6, lr}
 8003ce4:	b086      	sub	sp, #24
 8003ce6:	e9dd 540b 	ldrd	r5, r4, [sp, #44]	; 0x2c
 8003cea:	b945      	cbnz	r5, 8003cfe <xTaskCreateStatic+0x1c>
 8003cec:	f04f 0350 	mov.w	r3, #80	; 0x50
 8003cf0:	f383 8811 	msr	BASEPRI, r3
 8003cf4:	f3bf 8f6f 	isb	sy
 8003cf8:	f3bf 8f4f 	dsb	sy
 8003cfc:	e7fe      	b.n	8003cfc <xTaskCreateStatic+0x1a>
 8003cfe:	b944      	cbnz	r4, 8003d12 <xTaskCreateStatic+0x30>
 8003d00:	f04f 0350 	mov.w	r3, #80	; 0x50
 8003d04:	f383 8811 	msr	BASEPRI, r3
 8003d08:	f3bf 8f6f 	isb	sy
 8003d0c:	f3bf 8f4f 	dsb	sy
 8003d10:	e7fe      	b.n	8003d10 <xTaskCreateStatic+0x2e>
 8003d12:	2664      	movs	r6, #100	; 0x64
 8003d14:	9605      	str	r6, [sp, #20]
 8003d16:	9e05      	ldr	r6, [sp, #20]
 8003d18:	2e64      	cmp	r6, #100	; 0x64
 8003d1a:	d008      	beq.n	8003d2e <xTaskCreateStatic+0x4c>
 8003d1c:	f04f 0350 	mov.w	r3, #80	; 0x50
 8003d20:	f383 8811 	msr	BASEPRI, r3
 8003d24:	f3bf 8f6f 	isb	sy
 8003d28:	f3bf 8f4f 	dsb	sy
 8003d2c:	e7fe      	b.n	8003d2c <xTaskCreateStatic+0x4a>
 8003d2e:	6325      	str	r5, [r4, #48]	; 0x30
 8003d30:	2502      	movs	r5, #2
 8003d32:	f884 5061 	strb.w	r5, [r4, #97]	; 0x61
 8003d36:	ad04      	add	r5, sp, #16
 8003d38:	9501      	str	r5, [sp, #4]
 8003d3a:	9d0a      	ldr	r5, [sp, #40]	; 0x28
 8003d3c:	9402      	str	r4, [sp, #8]
 8003d3e:	9500      	str	r5, [sp, #0]
 8003d40:	9e05      	ldr	r6, [sp, #20]
 8003d42:	f7ff ff7d 	bl	8003c40 <prvInitialiseNewTask.constprop.0>
 8003d46:	4620      	mov	r0, r4
 8003d48:	f7ff fe64 	bl	8003a14 <prvAddNewTaskToReadyList>
 8003d4c:	9804      	ldr	r0, [sp, #16]
 8003d4e:	b006      	add	sp, #24
 8003d50:	bd70      	pop	{r4, r5, r6, pc}

08003d52 <xTaskCreate>:
 8003d52:	e92d 43f0 	stmdb	sp!, {r4, r5, r6, r7, r8, r9, lr}
 8003d56:	4607      	mov	r7, r0
 8003d58:	b085      	sub	sp, #20
 8003d5a:	0090      	lsls	r0, r2, #2
 8003d5c:	4688      	mov	r8, r1
 8003d5e:	4616      	mov	r6, r2
 8003d60:	4699      	mov	r9, r3
 8003d62:	f000 ff89 	bl	8004c78 <pvPortMalloc>
 8003d66:	4605      	mov	r5, r0
 8003d68:	b1e8      	cbz	r0, 8003da6 <xTaskCreate+0x54>
 8003d6a:	2064      	movs	r0, #100	; 0x64
 8003d6c:	f000 ff84 	bl	8004c78 <pvPortMalloc>
 8003d70:	4604      	mov	r4, r0
 8003d72:	b1a8      	cbz	r0, 8003da0 <xTaskCreate+0x4e>
 8003d74:	2300      	movs	r3, #0
 8003d76:	f880 3061 	strb.w	r3, [r0, #97]	; 0x61
 8003d7a:	9b0d      	ldr	r3, [sp, #52]	; 0x34
 8003d7c:	6305      	str	r5, [r0, #48]	; 0x30
 8003d7e:	9301      	str	r3, [sp, #4]
 8003d80:	9b0c      	ldr	r3, [sp, #48]	; 0x30
 8003d82:	9002      	str	r0, [sp, #8]
 8003d84:	9300      	str	r3, [sp, #0]
 8003d86:	4632      	mov	r2, r6
 8003d88:	464b      	mov	r3, r9
 8003d8a:	4641      	mov	r1, r8
 8003d8c:	4638      	mov	r0, r7
 8003d8e:	f7ff ff57 	bl	8003c40 <prvInitialiseNewTask.constprop.0>
 8003d92:	4620      	mov	r0, r4
 8003d94:	f7ff fe3e 	bl	8003a14 <prvAddNewTaskToReadyList>
 8003d98:	2001      	movs	r0, #1
 8003d9a:	b005      	add	sp, #20
 8003d9c:	e8bd 83f0 	ldmia.w	sp!, {r4, r5, r6, r7, r8, r9, pc}
 8003da0:	4628      	mov	r0, r5
 8003da2:	f001 f801 	bl	8004da8 <vPortFree>
 8003da6:	f04f 30ff 	mov.w	r0, #4294967295
 8003daa:	e7f6      	b.n	8003d9a <xTaskCreate+0x48>

08003dac <vTaskStartScheduler>:
 8003dac:	b510      	push	{r4, lr}
 8003dae:	b088      	sub	sp, #32
 8003db0:	2400      	movs	r4, #0
 8003db2:	aa07      	add	r2, sp, #28
 8003db4:	a906      	add	r1, sp, #24
 8003db6:	a805      	add	r0, sp, #20
 8003db8:	e9cd 4405 	strd	r4, r4, [sp, #20]
 8003dbc:	f7ff f900 	bl	8002fc0 <vApplicationGetIdleTaskMemory>
 8003dc0:	9b05      	ldr	r3, [sp, #20]
 8003dc2:	9302      	str	r3, [sp, #8]
 8003dc4:	9b06      	ldr	r3, [sp, #24]
 8003dc6:	9a07      	ldr	r2, [sp, #28]
 8003dc8:	4917      	ldr	r1, [pc, #92]	; (8003e28 <vTaskStartScheduler+0x7c>)
 8003dca:	4818      	ldr	r0, [pc, #96]	; (8003e2c <vTaskStartScheduler+0x80>)
 8003dcc:	e9cd 4300 	strd	r4, r3, [sp]
 8003dd0:	4623      	mov	r3, r4
 8003dd2:	f7ff ff86 	bl	8003ce2 <xTaskCreateStatic>
 8003dd6:	b328      	cbz	r0, 8003e24 <vTaskStartScheduler+0x78>
 8003dd8:	f000 fbe2 	bl	80045a0 <xTimerCreateTimerTask>
 8003ddc:	2801      	cmp	r0, #1
 8003dde:	d116      	bne.n	8003e0e <vTaskStartScheduler+0x62>
 8003de0:	f04f 0350 	mov.w	r3, #80	; 0x50
 8003de4:	f383 8811 	msr	BASEPRI, r3
 8003de8:	f3bf 8f6f 	isb	sy
 8003dec:	f3bf 8f4f 	dsb	sy
 8003df0:	4b0f      	ldr	r3, [pc, #60]	; (8003e30 <vTaskStartScheduler+0x84>)
 8003df2:	f04f 32ff 	mov.w	r2, #4294967295
 8003df6:	601a      	str	r2, [r3, #0]
 8003df8:	4b0e      	ldr	r3, [pc, #56]	; (8003e34 <vTaskStartScheduler+0x88>)
 8003dfa:	6018      	str	r0, [r3, #0]
 8003dfc:	4b0e      	ldr	r3, [pc, #56]	; (8003e38 <vTaskStartScheduler+0x8c>)
 8003dfe:	601c      	str	r4, [r3, #0]
 8003e00:	f7fc ffa2 	bl	8000d48 <configureTimerForRunTimeStats>
 8003e04:	b008      	add	sp, #32
 8003e06:	e8bd 4010 	ldmia.w	sp!, {r4, lr}
 8003e0a:	f000 be5b 	b.w	8004ac4 <xPortStartScheduler>
 8003e0e:	3001      	adds	r0, #1
 8003e10:	d108      	bne.n	8003e24 <vTaskStartScheduler+0x78>
 8003e12:	f04f 0350 	mov.w	r3, #80	; 0x50
 8003e16:	f383 8811 	msr	BASEPRI, r3
 8003e1a:	f3bf 8f6f 	isb	sy
 8003e1e:	f3bf 8f4f 	dsb	sy
 8003e22:	e7fe      	b.n	8003e22 <vTaskStartScheduler+0x76>
 8003e24:	b008      	add	sp, #32
 8003e26:	bd10      	pop	{r4, pc}
 8003e28:	08004fcd 	.word	0x08004fcd
 8003e2c:	08003be1 	.word	0x08003be1
 8003e30:	20000ddc 	.word	0x20000ddc
 8003e34:	20000dfc 	.word	0x20000dfc
 8003e38:	20000e28 	.word	0x20000e28

08003e3c <vTaskSuspendAll>:
 8003e3c:	4a02      	ldr	r2, [pc, #8]	; (8003e48 <vTaskSuspendAll+0xc>)
 8003e3e:	6813      	ldr	r3, [r2, #0]
 8003e40:	3301      	adds	r3, #1
 8003e42:	6013      	str	r3, [r2, #0]
 8003e44:	4770      	bx	lr
 8003e46:	bf00      	nop
 8003e48:	20000da8 	.word	0x20000da8

08003e4c <xTaskGetTickCount>:
 8003e4c:	4b01      	ldr	r3, [pc, #4]	; (8003e54 <xTaskGetTickCount+0x8>)
 8003e4e:	6818      	ldr	r0, [r3, #0]
 8003e50:	4770      	bx	lr
 8003e52:	bf00      	nop
 8003e54:	20000e28 	.word	0x20000e28

08003e58 <xTaskIncrementTick>:
 8003e58:	4b3f      	ldr	r3, [pc, #252]	; (8003f58 <xTaskIncrementTick+0x100>)
 8003e5a:	681b      	ldr	r3, [r3, #0]
 8003e5c:	e92d 4ff7 	stmdb	sp!, {r0, r1, r2, r4, r5, r6, r7, r8, r9, sl, fp, lr}
 8003e60:	2b00      	cmp	r3, #0
 8003e62:	d173      	bne.n	8003f4c <xTaskIncrementTick+0xf4>
 8003e64:	4b3d      	ldr	r3, [pc, #244]	; (8003f5c <xTaskIncrementTick+0x104>)
 8003e66:	681d      	ldr	r5, [r3, #0]
 8003e68:	3501      	adds	r5, #1
 8003e6a:	601d      	str	r5, [r3, #0]
 8003e6c:	b9bd      	cbnz	r5, 8003e9e <xTaskIncrementTick+0x46>
 8003e6e:	4b3c      	ldr	r3, [pc, #240]	; (8003f60 <xTaskIncrementTick+0x108>)
 8003e70:	681a      	ldr	r2, [r3, #0]
 8003e72:	6812      	ldr	r2, [r2, #0]
 8003e74:	b142      	cbz	r2, 8003e88 <xTaskIncrementTick+0x30>
 8003e76:	f04f 0350 	mov.w	r3, #80	; 0x50
 8003e7a:	f383 8811 	msr	BASEPRI, r3
 8003e7e:	f3bf 8f6f 	isb	sy
 8003e82:	f3bf 8f4f 	dsb	sy
 8003e86:	e7fe      	b.n	8003e86 <xTaskIncrementTick+0x2e>
 8003e88:	4a36      	ldr	r2, [pc, #216]	; (8003f64 <xTaskIncrementTick+0x10c>)
 8003e8a:	6819      	ldr	r1, [r3, #0]
 8003e8c:	6810      	ldr	r0, [r2, #0]
 8003e8e:	6018      	str	r0, [r3, #0]
 8003e90:	6011      	str	r1, [r2, #0]
 8003e92:	4a35      	ldr	r2, [pc, #212]	; (8003f68 <xTaskIncrementTick+0x110>)
 8003e94:	6813      	ldr	r3, [r2, #0]
 8003e96:	3301      	adds	r3, #1
 8003e98:	6013      	str	r3, [r2, #0]
 8003e9a:	f7ff fe73 	bl	8003b84 <prvResetNextTaskUnblockTime>
 8003e9e:	4e33      	ldr	r6, [pc, #204]	; (8003f6c <xTaskIncrementTick+0x114>)
 8003ea0:	4f33      	ldr	r7, [pc, #204]	; (8003f70 <xTaskIncrementTick+0x118>)
 8003ea2:	6833      	ldr	r3, [r6, #0]
 8003ea4:	f8df 80d4 	ldr.w	r8, [pc, #212]	; 8003f7c <xTaskIncrementTick+0x124>
 8003ea8:	429d      	cmp	r5, r3
 8003eaa:	f04f 0400 	mov.w	r4, #0
 8003eae:	d211      	bcs.n	8003ed4 <xTaskIncrementTick+0x7c>
 8003eb0:	f8d8 3000 	ldr.w	r3, [r8]
 8003eb4:	6adb      	ldr	r3, [r3, #44]	; 0x2c
 8003eb6:	2214      	movs	r2, #20
 8003eb8:	4353      	muls	r3, r2
 8003eba:	58fb      	ldr	r3, [r7, r3]
 8003ebc:	2b02      	cmp	r3, #2
 8003ebe:	4b2d      	ldr	r3, [pc, #180]	; (8003f74 <xTaskIncrementTick+0x11c>)
 8003ec0:	681b      	ldr	r3, [r3, #0]
 8003ec2:	bf28      	it	cs
 8003ec4:	2401      	movcs	r4, #1
 8003ec6:	2b00      	cmp	r3, #0
 8003ec8:	bf18      	it	ne
 8003eca:	2401      	movne	r4, #1
 8003ecc:	4620      	mov	r0, r4
 8003ece:	b003      	add	sp, #12
 8003ed0:	e8bd 8ff0 	ldmia.w	sp!, {r4, r5, r6, r7, r8, r9, sl, fp, pc}
 8003ed4:	f8df 9088 	ldr.w	r9, [pc, #136]	; 8003f60 <xTaskIncrementTick+0x108>
 8003ed8:	f8df a0a4 	ldr.w	sl, [pc, #164]	; 8003f80 <xTaskIncrementTick+0x128>
 8003edc:	f8d9 3000 	ldr.w	r3, [r9]
 8003ee0:	681b      	ldr	r3, [r3, #0]
 8003ee2:	b91b      	cbnz	r3, 8003eec <xTaskIncrementTick+0x94>
 8003ee4:	f04f 33ff 	mov.w	r3, #4294967295
 8003ee8:	6033      	str	r3, [r6, #0]
 8003eea:	e7e1      	b.n	8003eb0 <xTaskIncrementTick+0x58>
 8003eec:	f8d9 3000 	ldr.w	r3, [r9]
 8003ef0:	68db      	ldr	r3, [r3, #12]
 8003ef2:	f8d3 b00c 	ldr.w	fp, [r3, #12]
 8003ef6:	f8db 2004 	ldr.w	r2, [fp, #4]
 8003efa:	4295      	cmp	r5, r2
 8003efc:	d201      	bcs.n	8003f02 <xTaskIncrementTick+0xaa>
 8003efe:	6032      	str	r2, [r6, #0]
 8003f00:	e7d6      	b.n	8003eb0 <xTaskIncrementTick+0x58>
 8003f02:	f10b 0104 	add.w	r1, fp, #4
 8003f06:	4608      	mov	r0, r1
 8003f08:	9101      	str	r1, [sp, #4]
 8003f0a:	f7ff f8a2 	bl	8003052 <uxListRemove>
 8003f0e:	f8db 2028 	ldr.w	r2, [fp, #40]	; 0x28
 8003f12:	9901      	ldr	r1, [sp, #4]
 8003f14:	b122      	cbz	r2, 8003f20 <xTaskIncrementTick+0xc8>
 8003f16:	f10b 0018 	add.w	r0, fp, #24
 8003f1a:	f7ff f89a 	bl	8003052 <uxListRemove>
 8003f1e:	9901      	ldr	r1, [sp, #4]
 8003f20:	f8db 002c 	ldr.w	r0, [fp, #44]	; 0x2c
 8003f24:	f8da 2000 	ldr.w	r2, [sl]
 8003f28:	2314      	movs	r3, #20
 8003f2a:	4290      	cmp	r0, r2
 8003f2c:	bf88      	it	hi
 8003f2e:	f8ca 0000 	strhi.w	r0, [sl]
 8003f32:	fb03 7000 	mla	r0, r3, r0, r7
 8003f36:	f7ff f869 	bl	800300c <vListInsertEnd>
 8003f3a:	f8d8 1000 	ldr.w	r1, [r8]
 8003f3e:	f8db 202c 	ldr.w	r2, [fp, #44]	; 0x2c
 8003f42:	6acb      	ldr	r3, [r1, #44]	; 0x2c
 8003f44:	429a      	cmp	r2, r3
 8003f46:	bf28      	it	cs
 8003f48:	2401      	movcs	r4, #1
 8003f4a:	e7c7      	b.n	8003edc <xTaskIncrementTick+0x84>
 8003f4c:	4a0a      	ldr	r2, [pc, #40]	; (8003f78 <xTaskIncrementTick+0x120>)
 8003f4e:	6813      	ldr	r3, [r2, #0]
 8003f50:	3301      	adds	r3, #1
 8003f52:	6013      	str	r3, [r2, #0]
 8003f54:	2400      	movs	r4, #0
 8003f56:	e7b9      	b.n	8003ecc <xTaskIncrementTick+0x74>
 8003f58:	20000da8 	.word	0x20000da8
 8003f5c:	20000e28 	.word	0x20000e28
 8003f60:	20000934 	.word	0x20000934
 8003f64:	20000938 	.word	0x20000938
 8003f68:	20000de0 	.word	0x20000de0
 8003f6c:	20000ddc 	.word	0x20000ddc
 8003f70:	2000093c 	.word	0x2000093c
 8003f74:	20000e2c 	.word	0x20000e2c
 8003f78:	20000de4 	.word	0x20000de4
 8003f7c:	20000930 	.word	0x20000930
 8003f80:	20000db0 	.word	0x20000db0

08003f84 <xTaskResumeAll>:
 8003f84:	b5f7      	push	{r0, r1, r2, r4, r5, r6, r7, lr}
 8003f86:	4c31      	ldr	r4, [pc, #196]	; (800404c <xTaskResumeAll+0xc8>)
 8003f88:	6823      	ldr	r3, [r4, #0]
 8003f8a:	b943      	cbnz	r3, 8003f9e <xTaskResumeAll+0x1a>
 8003f8c:	f04f 0350 	mov.w	r3, #80	; 0x50
 8003f90:	f383 8811 	msr	BASEPRI, r3
 8003f94:	f3bf 8f6f 	isb	sy
 8003f98:	f3bf 8f4f 	dsb	sy
 8003f9c:	e7fe      	b.n	8003f9c <xTaskResumeAll+0x18>
 8003f9e:	f000 fd01 	bl	80049a4 <vPortEnterCritical>
 8003fa2:	6823      	ldr	r3, [r4, #0]
 8003fa4:	3b01      	subs	r3, #1
 8003fa6:	6023      	str	r3, [r4, #0]
 8003fa8:	6824      	ldr	r4, [r4, #0]
 8003faa:	b12c      	cbz	r4, 8003fb8 <xTaskResumeAll+0x34>
 8003fac:	2400      	movs	r4, #0
 8003fae:	f000 fd19 	bl	80049e4 <vPortExitCritical>
 8003fb2:	4620      	mov	r0, r4
 8003fb4:	b003      	add	sp, #12
 8003fb6:	bdf0      	pop	{r4, r5, r6, r7, pc}
 8003fb8:	4b25      	ldr	r3, [pc, #148]	; (8004050 <xTaskResumeAll+0xcc>)
 8003fba:	681b      	ldr	r3, [r3, #0]
 8003fbc:	2b00      	cmp	r3, #0
 8003fbe:	d0f5      	beq.n	8003fac <xTaskResumeAll+0x28>
 8003fc0:	4d24      	ldr	r5, [pc, #144]	; (8004054 <xTaskResumeAll+0xd0>)
 8003fc2:	4e25      	ldr	r6, [pc, #148]	; (8004058 <xTaskResumeAll+0xd4>)
 8003fc4:	4f25      	ldr	r7, [pc, #148]	; (800405c <xTaskResumeAll+0xd8>)
 8003fc6:	e01e      	b.n	8004006 <xTaskResumeAll+0x82>
 8003fc8:	68eb      	ldr	r3, [r5, #12]
 8003fca:	68dc      	ldr	r4, [r3, #12]
 8003fcc:	f104 0018 	add.w	r0, r4, #24
 8003fd0:	f7ff f83f 	bl	8003052 <uxListRemove>
 8003fd4:	1d21      	adds	r1, r4, #4
 8003fd6:	4608      	mov	r0, r1
 8003fd8:	9101      	str	r1, [sp, #4]
 8003fda:	f7ff f83a 	bl	8003052 <uxListRemove>
 8003fde:	6ae3      	ldr	r3, [r4, #44]	; 0x2c
 8003fe0:	6832      	ldr	r2, [r6, #0]
 8003fe2:	9901      	ldr	r1, [sp, #4]
 8003fe4:	2014      	movs	r0, #20
 8003fe6:	4293      	cmp	r3, r2
 8003fe8:	fb00 7003 	mla	r0, r0, r3, r7
 8003fec:	bf88      	it	hi
 8003fee:	6033      	strhi	r3, [r6, #0]
 8003ff0:	f7ff f80c 	bl	800300c <vListInsertEnd>
 8003ff4:	4b1a      	ldr	r3, [pc, #104]	; (8004060 <xTaskResumeAll+0xdc>)
 8003ff6:	6ae2      	ldr	r2, [r4, #44]	; 0x2c
 8003ff8:	681b      	ldr	r3, [r3, #0]
 8003ffa:	6adb      	ldr	r3, [r3, #44]	; 0x2c
 8003ffc:	429a      	cmp	r2, r3
 8003ffe:	d302      	bcc.n	8004006 <xTaskResumeAll+0x82>
 8004000:	4b18      	ldr	r3, [pc, #96]	; (8004064 <xTaskResumeAll+0xe0>)
 8004002:	2201      	movs	r2, #1
 8004004:	601a      	str	r2, [r3, #0]
 8004006:	682b      	ldr	r3, [r5, #0]
 8004008:	2b00      	cmp	r3, #0
 800400a:	d1dd      	bne.n	8003fc8 <xTaskResumeAll+0x44>
 800400c:	b10c      	cbz	r4, 8004012 <xTaskResumeAll+0x8e>
 800400e:	f7ff fdb9 	bl	8003b84 <prvResetNextTaskUnblockTime>
 8004012:	4d15      	ldr	r5, [pc, #84]	; (8004068 <xTaskResumeAll+0xe4>)
 8004014:	682c      	ldr	r4, [r5, #0]
 8004016:	b144      	cbz	r4, 800402a <xTaskResumeAll+0xa6>
 8004018:	4e12      	ldr	r6, [pc, #72]	; (8004064 <xTaskResumeAll+0xe0>)
 800401a:	2701      	movs	r7, #1
 800401c:	f7ff ff1c 	bl	8003e58 <xTaskIncrementTick>
 8004020:	b100      	cbz	r0, 8004024 <xTaskResumeAll+0xa0>
 8004022:	6037      	str	r7, [r6, #0]
 8004024:	3c01      	subs	r4, #1
 8004026:	d1f9      	bne.n	800401c <xTaskResumeAll+0x98>
 8004028:	602c      	str	r4, [r5, #0]
 800402a:	4b0e      	ldr	r3, [pc, #56]	; (8004064 <xTaskResumeAll+0xe0>)
 800402c:	681b      	ldr	r3, [r3, #0]
 800402e:	2b00      	cmp	r3, #0
 8004030:	d0bc      	beq.n	8003fac <xTaskResumeAll+0x28>
 8004032:	f04f 23e0 	mov.w	r3, #3758153728	; 0xe000e000
 8004036:	f04f 5280 	mov.w	r2, #268435456	; 0x10000000
 800403a:	f8c3 2d04 	str.w	r2, [r3, #3332]	; 0xd04
 800403e:	f3bf 8f4f 	dsb	sy
 8004042:	f3bf 8f6f 	isb	sy
 8004046:	2401      	movs	r4, #1
 8004048:	e7b1      	b.n	8003fae <xTaskResumeAll+0x2a>
 800404a:	bf00      	nop
 800404c:	20000da8 	.word	0x20000da8
 8004050:	20000da0 	.word	0x20000da0
 8004054:	20000de8 	.word	0x20000de8
 8004058:	20000db0 	.word	0x20000db0
 800405c:	2000093c 	.word	0x2000093c
 8004060:	20000930 	.word	0x20000930
 8004064:	20000e2c 	.word	0x20000e2c
 8004068:	20000de4 	.word	0x20000de4

0800406c <vTaskDelay>:
 800406c:	b508      	push	{r3, lr}
 800406e:	b950      	cbnz	r0, 8004086 <vTaskDelay+0x1a>
 8004070:	f04f 23e0 	mov.w	r3, #3758153728	; 0xe000e000
 8004074:	f04f 5280 	mov.w	r2, #268435456	; 0x10000000
 8004078:	f8c3 2d04 	str.w	r2, [r3, #3332]	; 0xd04
 800407c:	f3bf 8f4f 	dsb	sy
 8004080:	f3bf 8f6f 	isb	sy
 8004084:	bd08      	pop	{r3, pc}
 8004086:	4b0a      	ldr	r3, [pc, #40]	; (80040b0 <vTaskDelay+0x44>)
 8004088:	6819      	ldr	r1, [r3, #0]
 800408a:	b141      	cbz	r1, 800409e <vTaskDelay+0x32>
 800408c:	f04f 0350 	mov.w	r3, #80	; 0x50
 8004090:	f383 8811 	msr	BASEPRI, r3
 8004094:	f3bf 8f6f 	isb	sy
 8004098:	f3bf 8f4f 	dsb	sy
 800409c:	e7fe      	b.n	800409c <vTaskDelay+0x30>
 800409e:	f7ff fecd 	bl	8003e3c <vTaskSuspendAll>
 80040a2:	f7ff fd37 	bl	8003b14 <prvAddCurrentTaskToDelayedList>
 80040a6:	f7ff ff6d 	bl	8003f84 <xTaskResumeAll>
 80040aa:	2800      	cmp	r0, #0
 80040ac:	d0e0      	beq.n	8004070 <vTaskDelay+0x4>
 80040ae:	e7e9      	b.n	8004084 <vTaskDelay+0x18>
 80040b0:	20000da8 	.word	0x20000da8

080040b4 <vTaskSwitchContext>:
 80040b4:	b5f8      	push	{r3, r4, r5, r6, r7, lr}
 80040b6:	4b29      	ldr	r3, [pc, #164]	; (800415c <vTaskSwitchContext+0xa8>)
 80040b8:	681a      	ldr	r2, [r3, #0]
 80040ba:	4b29      	ldr	r3, [pc, #164]	; (8004160 <vTaskSwitchContext+0xac>)
 80040bc:	b112      	cbz	r2, 80040c4 <vTaskSwitchContext+0x10>
 80040be:	2201      	movs	r2, #1
 80040c0:	601a      	str	r2, [r3, #0]
 80040c2:	bdf8      	pop	{r3, r4, r5, r6, r7, pc}
 80040c4:	601a      	str	r2, [r3, #0]
 80040c6:	f7fc fe53 	bl	8000d70 <getRunTimeCounterValue>
 80040ca:	4a26      	ldr	r2, [pc, #152]	; (8004164 <vTaskSwitchContext+0xb0>)
 80040cc:	4c26      	ldr	r4, [pc, #152]	; (8004168 <vTaskSwitchContext+0xb4>)
 80040ce:	6815      	ldr	r5, [r2, #0]
 80040d0:	42a8      	cmp	r0, r5
 80040d2:	d904      	bls.n	80040de <vTaskSwitchContext+0x2a>
 80040d4:	6821      	ldr	r1, [r4, #0]
 80040d6:	6d8b      	ldr	r3, [r1, #88]	; 0x58
 80040d8:	1b5b      	subs	r3, r3, r5
 80040da:	4403      	add	r3, r0
 80040dc:	658b      	str	r3, [r1, #88]	; 0x58
 80040de:	6823      	ldr	r3, [r4, #0]
 80040e0:	6010      	str	r0, [r2, #0]
 80040e2:	6b1b      	ldr	r3, [r3, #48]	; 0x30
 80040e4:	681a      	ldr	r2, [r3, #0]
 80040e6:	f1b2 3fa5 	cmp.w	r2, #2779096485	; 0xa5a5a5a5
 80040ea:	d10b      	bne.n	8004104 <vTaskSwitchContext+0x50>
 80040ec:	685a      	ldr	r2, [r3, #4]
 80040ee:	f1b2 3fa5 	cmp.w	r2, #2779096485	; 0xa5a5a5a5
 80040f2:	d107      	bne.n	8004104 <vTaskSwitchContext+0x50>
 80040f4:	689a      	ldr	r2, [r3, #8]
 80040f6:	f1b2 3fa5 	cmp.w	r2, #2779096485	; 0xa5a5a5a5
 80040fa:	d103      	bne.n	8004104 <vTaskSwitchContext+0x50>
 80040fc:	68db      	ldr	r3, [r3, #12]
 80040fe:	f1b3 3fa5 	cmp.w	r3, #2779096485	; 0xa5a5a5a5
 8004102:	d004      	beq.n	800410e <vTaskSwitchContext+0x5a>
 8004104:	6820      	ldr	r0, [r4, #0]
 8004106:	6821      	ldr	r1, [r4, #0]
 8004108:	3134      	adds	r1, #52	; 0x34
 800410a:	f7fc fe37 	bl	8000d7c <vApplicationStackOverflowHook>
 800410e:	4e17      	ldr	r6, [pc, #92]	; (800416c <vTaskSwitchContext+0xb8>)
 8004110:	4917      	ldr	r1, [pc, #92]	; (8004170 <vTaskSwitchContext+0xbc>)
 8004112:	6832      	ldr	r2, [r6, #0]
 8004114:	2714      	movs	r7, #20
 8004116:	fb07 f302 	mul.w	r3, r7, r2
 800411a:	18c8      	adds	r0, r1, r3
 800411c:	58cd      	ldr	r5, [r1, r3]
 800411e:	b185      	cbz	r5, 8004142 <vTaskSwitchContext+0x8e>
 8004120:	6845      	ldr	r5, [r0, #4]
 8004122:	3308      	adds	r3, #8
 8004124:	686d      	ldr	r5, [r5, #4]
 8004126:	6045      	str	r5, [r0, #4]
 8004128:	440b      	add	r3, r1
 800412a:	429d      	cmp	r5, r3
 800412c:	bf04      	itt	eq
 800412e:	686b      	ldreq	r3, [r5, #4]
 8004130:	6043      	streq	r3, [r0, #4]
 8004132:	2314      	movs	r3, #20
 8004134:	fb03 1102 	mla	r1, r3, r2, r1
 8004138:	684b      	ldr	r3, [r1, #4]
 800413a:	68db      	ldr	r3, [r3, #12]
 800413c:	6023      	str	r3, [r4, #0]
 800413e:	6032      	str	r2, [r6, #0]
 8004140:	e7bf      	b.n	80040c2 <vTaskSwitchContext+0xe>
 8004142:	b942      	cbnz	r2, 8004156 <vTaskSwitchContext+0xa2>
 8004144:	f04f 0350 	mov.w	r3, #80	; 0x50
 8004148:	f383 8811 	msr	BASEPRI, r3
 800414c:	f3bf 8f6f 	isb	sy
 8004150:	f3bf 8f4f 	dsb	sy
 8004154:	e7fe      	b.n	8004154 <vTaskSwitchContext+0xa0>
 8004156:	3a01      	subs	r2, #1
 8004158:	e7dd      	b.n	8004116 <vTaskSwitchContext+0x62>
 800415a:	bf00      	nop
 800415c:	20000da8 	.word	0x20000da8
 8004160:	20000e2c 	.word	0x20000e2c
 8004164:	20000d9c 	.word	0x20000d9c
 8004168:	20000930 	.word	0x20000930
 800416c:	20000db0 	.word	0x20000db0
 8004170:	2000093c 	.word	0x2000093c

08004174 <vTaskPlaceOnEventList>:
 8004174:	b510      	push	{r4, lr}
 8004176:	460c      	mov	r4, r1
 8004178:	b940      	cbnz	r0, 800418c <vTaskPlaceOnEventList+0x18>
 800417a:	f04f 0350 	mov.w	r3, #80	; 0x50
 800417e:	f383 8811 	msr	BASEPRI, r3
 8004182:	f3bf 8f6f 	isb	sy
 8004186:	f3bf 8f4f 	dsb	sy
 800418a:	e7fe      	b.n	800418a <vTaskPlaceOnEventList+0x16>
 800418c:	4b05      	ldr	r3, [pc, #20]	; (80041a4 <vTaskPlaceOnEventList+0x30>)
 800418e:	6819      	ldr	r1, [r3, #0]
 8004190:	3118      	adds	r1, #24
 8004192:	f7fe ff47 	bl	8003024 <vListInsert>
 8004196:	4620      	mov	r0, r4
 8004198:	2101      	movs	r1, #1
 800419a:	e8bd 4010 	ldmia.w	sp!, {r4, lr}
 800419e:	f7ff bcb9 	b.w	8003b14 <prvAddCurrentTaskToDelayedList>
 80041a2:	bf00      	nop
 80041a4:	20000930 	.word	0x20000930

080041a8 <vTaskPlaceOnEventListRestricted>:
 80041a8:	b538      	push	{r3, r4, r5, lr}
 80041aa:	460d      	mov	r5, r1
 80041ac:	4614      	mov	r4, r2
 80041ae:	b940      	cbnz	r0, 80041c2 <vTaskPlaceOnEventListRestricted+0x1a>
 80041b0:	f04f 0350 	mov.w	r3, #80	; 0x50
 80041b4:	f383 8811 	msr	BASEPRI, r3
 80041b8:	f3bf 8f6f 	isb	sy
 80041bc:	f3bf 8f4f 	dsb	sy
 80041c0:	e7fe      	b.n	80041c0 <vTaskPlaceOnEventListRestricted+0x18>
 80041c2:	4b07      	ldr	r3, [pc, #28]	; (80041e0 <vTaskPlaceOnEventListRestricted+0x38>)
 80041c4:	6819      	ldr	r1, [r3, #0]
 80041c6:	3118      	adds	r1, #24
 80041c8:	f7fe ff20 	bl	800300c <vListInsertEnd>
 80041cc:	2c00      	cmp	r4, #0
 80041ce:	4621      	mov	r1, r4
 80041d0:	bf0c      	ite	eq
 80041d2:	4628      	moveq	r0, r5
 80041d4:	f04f 30ff 	movne.w	r0, #4294967295
 80041d8:	e8bd 4038 	ldmia.w	sp!, {r3, r4, r5, lr}
 80041dc:	f7ff bc9a 	b.w	8003b14 <prvAddCurrentTaskToDelayedList>
 80041e0:	20000930 	.word	0x20000930

080041e4 <xTaskRemoveFromEventList>:
 80041e4:	68c3      	ldr	r3, [r0, #12]
 80041e6:	b513      	push	{r0, r1, r4, lr}
 80041e8:	68dc      	ldr	r4, [r3, #12]
 80041ea:	b944      	cbnz	r4, 80041fe <xTaskRemoveFromEventList+0x1a>
 80041ec:	f04f 0350 	mov.w	r3, #80	; 0x50
 80041f0:	f383 8811 	msr	BASEPRI, r3
 80041f4:	f3bf 8f6f 	isb	sy
 80041f8:	f3bf 8f4f 	dsb	sy
 80041fc:	e7fe      	b.n	80041fc <xTaskRemoveFromEventList+0x18>
 80041fe:	f104 0118 	add.w	r1, r4, #24
 8004202:	4608      	mov	r0, r1
 8004204:	9101      	str	r1, [sp, #4]
 8004206:	f7fe ff24 	bl	8003052 <uxListRemove>
 800420a:	4b12      	ldr	r3, [pc, #72]	; (8004254 <xTaskRemoveFromEventList+0x70>)
 800420c:	9901      	ldr	r1, [sp, #4]
 800420e:	681b      	ldr	r3, [r3, #0]
 8004210:	b9eb      	cbnz	r3, 800424e <xTaskRemoveFromEventList+0x6a>
 8004212:	1d21      	adds	r1, r4, #4
 8004214:	4608      	mov	r0, r1
 8004216:	9101      	str	r1, [sp, #4]
 8004218:	f7fe ff1b 	bl	8003052 <uxListRemove>
 800421c:	4a0e      	ldr	r2, [pc, #56]	; (8004258 <xTaskRemoveFromEventList+0x74>)
 800421e:	6ae3      	ldr	r3, [r4, #44]	; 0x2c
 8004220:	6810      	ldr	r0, [r2, #0]
 8004222:	9901      	ldr	r1, [sp, #4]
 8004224:	4283      	cmp	r3, r0
 8004226:	bf88      	it	hi
 8004228:	6013      	strhi	r3, [r2, #0]
 800422a:	4a0c      	ldr	r2, [pc, #48]	; (800425c <xTaskRemoveFromEventList+0x78>)
 800422c:	2014      	movs	r0, #20
 800422e:	fb00 2003 	mla	r0, r0, r3, r2
 8004232:	f7fe feeb 	bl	800300c <vListInsertEnd>
 8004236:	4b0a      	ldr	r3, [pc, #40]	; (8004260 <xTaskRemoveFromEventList+0x7c>)
 8004238:	6ae2      	ldr	r2, [r4, #44]	; 0x2c
 800423a:	681b      	ldr	r3, [r3, #0]
 800423c:	6adb      	ldr	r3, [r3, #44]	; 0x2c
 800423e:	429a      	cmp	r2, r3
 8004240:	bf85      	ittet	hi
 8004242:	4b08      	ldrhi	r3, [pc, #32]	; (8004264 <xTaskRemoveFromEventList+0x80>)
 8004244:	2001      	movhi	r0, #1
 8004246:	2000      	movls	r0, #0
 8004248:	6018      	strhi	r0, [r3, #0]
 800424a:	b002      	add	sp, #8
 800424c:	bd10      	pop	{r4, pc}
 800424e:	4806      	ldr	r0, [pc, #24]	; (8004268 <xTaskRemoveFromEventList+0x84>)
 8004250:	e7ef      	b.n	8004232 <xTaskRemoveFromEventList+0x4e>
 8004252:	bf00      	nop
 8004254:	20000da8 	.word	0x20000da8
 8004258:	20000db0 	.word	0x20000db0
 800425c:	2000093c 	.word	0x2000093c
 8004260:	20000930 	.word	0x20000930
 8004264:	20000e2c 	.word	0x20000e2c
 8004268:	20000de8 	.word	0x20000de8

0800426c <vTaskInternalSetTimeOutState>:
 800426c:	4b03      	ldr	r3, [pc, #12]	; (800427c <vTaskInternalSetTimeOutState+0x10>)
 800426e:	681b      	ldr	r3, [r3, #0]
 8004270:	6003      	str	r3, [r0, #0]
 8004272:	4b03      	ldr	r3, [pc, #12]	; (8004280 <vTaskInternalSetTimeOutState+0x14>)
 8004274:	681b      	ldr	r3, [r3, #0]
 8004276:	6043      	str	r3, [r0, #4]
 8004278:	4770      	bx	lr
 800427a:	bf00      	nop
 800427c:	20000de0 	.word	0x20000de0
 8004280:	20000e28 	.word	0x20000e28

08004284 <xTaskCheckForTimeOut>:
 8004284:	b570      	push	{r4, r5, r6, lr}
 8004286:	460c      	mov	r4, r1
 8004288:	4605      	mov	r5, r0
 800428a:	b940      	cbnz	r0, 800429e <xTaskCheckForTimeOut+0x1a>
 800428c:	f04f 0350 	mov.w	r3, #80	; 0x50
 8004290:	f383 8811 	msr	BASEPRI, r3
 8004294:	f3bf 8f6f 	isb	sy
 8004298:	f3bf 8f4f 	dsb	sy
 800429c:	e7fe      	b.n	800429c <xTaskCheckForTimeOut+0x18>
 800429e:	b941      	cbnz	r1, 80042b2 <xTaskCheckForTimeOut+0x2e>
 80042a0:	f04f 0350 	mov.w	r3, #80	; 0x50
 80042a4:	f383 8811 	msr	BASEPRI, r3
 80042a8:	f3bf 8f6f 	isb	sy
 80042ac:	f3bf 8f4f 	dsb	sy
 80042b0:	e7fe      	b.n	80042b0 <xTaskCheckForTimeOut+0x2c>
 80042b2:	f000 fb77 	bl	80049a4 <vPortEnterCritical>
 80042b6:	4b0f      	ldr	r3, [pc, #60]	; (80042f4 <xTaskCheckForTimeOut+0x70>)
 80042b8:	6819      	ldr	r1, [r3, #0]
 80042ba:	6823      	ldr	r3, [r4, #0]
 80042bc:	1c5a      	adds	r2, r3, #1
 80042be:	d010      	beq.n	80042e2 <xTaskCheckForTimeOut+0x5e>
 80042c0:	480d      	ldr	r0, [pc, #52]	; (80042f8 <xTaskCheckForTimeOut+0x74>)
 80042c2:	682e      	ldr	r6, [r5, #0]
 80042c4:	6800      	ldr	r0, [r0, #0]
 80042c6:	686a      	ldr	r2, [r5, #4]
 80042c8:	4286      	cmp	r6, r0
 80042ca:	d001      	beq.n	80042d0 <xTaskCheckForTimeOut+0x4c>
 80042cc:	428a      	cmp	r2, r1
 80042ce:	d90f      	bls.n	80042f0 <xTaskCheckForTimeOut+0x6c>
 80042d0:	1a88      	subs	r0, r1, r2
 80042d2:	4283      	cmp	r3, r0
 80042d4:	d90a      	bls.n	80042ec <xTaskCheckForTimeOut+0x68>
 80042d6:	1a5b      	subs	r3, r3, r1
 80042d8:	4413      	add	r3, r2
 80042da:	6023      	str	r3, [r4, #0]
 80042dc:	4628      	mov	r0, r5
 80042de:	f7ff ffc5 	bl	800426c <vTaskInternalSetTimeOutState>
 80042e2:	2400      	movs	r4, #0
 80042e4:	f000 fb7e 	bl	80049e4 <vPortExitCritical>
 80042e8:	4620      	mov	r0, r4
 80042ea:	bd70      	pop	{r4, r5, r6, pc}
 80042ec:	2300      	movs	r3, #0
 80042ee:	6023      	str	r3, [r4, #0]
 80042f0:	2401      	movs	r4, #1
 80042f2:	e7f7      	b.n	80042e4 <xTaskCheckForTimeOut+0x60>
 80042f4:	20000e28 	.word	0x20000e28
 80042f8:	20000de0 	.word	0x20000de0

080042fc <vTaskMissedYield>:
 80042fc:	4b01      	ldr	r3, [pc, #4]	; (8004304 <vTaskMissedYield+0x8>)
 80042fe:	2201      	movs	r2, #1
 8004300:	601a      	str	r2, [r3, #0]
 8004302:	4770      	bx	lr
 8004304:	20000e2c 	.word	0x20000e2c

08004308 <xTaskGetCurrentTaskHandle>:
 8004308:	4b01      	ldr	r3, [pc, #4]	; (8004310 <xTaskGetCurrentTaskHandle+0x8>)
 800430a:	6818      	ldr	r0, [r3, #0]
 800430c:	4770      	bx	lr
 800430e:	bf00      	nop
 8004310:	20000930 	.word	0x20000930

08004314 <xTaskGetSchedulerState>:
 8004314:	4b05      	ldr	r3, [pc, #20]	; (800432c <xTaskGetSchedulerState+0x18>)
 8004316:	681b      	ldr	r3, [r3, #0]
 8004318:	b133      	cbz	r3, 8004328 <xTaskGetSchedulerState+0x14>
 800431a:	4b05      	ldr	r3, [pc, #20]	; (8004330 <xTaskGetSchedulerState+0x1c>)
 800431c:	6818      	ldr	r0, [r3, #0]
 800431e:	fab0 f080 	clz	r0, r0
 8004322:	0940      	lsrs	r0, r0, #5
 8004324:	0040      	lsls	r0, r0, #1
 8004326:	4770      	bx	lr
 8004328:	2001      	movs	r0, #1
 800432a:	4770      	bx	lr
 800432c:	20000dfc 	.word	0x20000dfc
 8004330:	20000da8 	.word	0x20000da8

08004334 <xTaskPriorityInherit>:
 8004334:	b573      	push	{r0, r1, r4, r5, r6, lr}
 8004336:	4604      	mov	r4, r0
 8004338:	b348      	cbz	r0, 800438e <xTaskPriorityInherit+0x5a>
 800433a:	4d1c      	ldr	r5, [pc, #112]	; (80043ac <xTaskPriorityInherit+0x78>)
 800433c:	6ac3      	ldr	r3, [r0, #44]	; 0x2c
 800433e:	682a      	ldr	r2, [r5, #0]
 8004340:	6ad2      	ldr	r2, [r2, #44]	; 0x2c
 8004342:	4293      	cmp	r3, r2
 8004344:	d229      	bcs.n	800439a <xTaskPriorityInherit+0x66>
 8004346:	6982      	ldr	r2, [r0, #24]
 8004348:	4e19      	ldr	r6, [pc, #100]	; (80043b0 <xTaskPriorityInherit+0x7c>)
 800434a:	2a00      	cmp	r2, #0
 800434c:	bfa1      	itttt	ge
 800434e:	682a      	ldrge	r2, [r5, #0]
 8004350:	6ad2      	ldrge	r2, [r2, #44]	; 0x2c
 8004352:	f1c2 0238 	rsbge	r2, r2, #56	; 0x38
 8004356:	6182      	strge	r2, [r0, #24]
 8004358:	2214      	movs	r2, #20
 800435a:	fb02 6303 	mla	r3, r2, r3, r6
 800435e:	6942      	ldr	r2, [r0, #20]
 8004360:	429a      	cmp	r2, r3
 8004362:	d116      	bne.n	8004392 <xTaskPriorityInherit+0x5e>
 8004364:	1d01      	adds	r1, r0, #4
 8004366:	4608      	mov	r0, r1
 8004368:	9101      	str	r1, [sp, #4]
 800436a:	f7fe fe72 	bl	8003052 <uxListRemove>
 800436e:	682b      	ldr	r3, [r5, #0]
 8004370:	4a10      	ldr	r2, [pc, #64]	; (80043b4 <xTaskPriorityInherit+0x80>)
 8004372:	6adb      	ldr	r3, [r3, #44]	; 0x2c
 8004374:	6810      	ldr	r0, [r2, #0]
 8004376:	9901      	ldr	r1, [sp, #4]
 8004378:	62e3      	str	r3, [r4, #44]	; 0x2c
 800437a:	4283      	cmp	r3, r0
 800437c:	f04f 0014 	mov.w	r0, #20
 8004380:	fb00 6003 	mla	r0, r0, r3, r6
 8004384:	bf88      	it	hi
 8004386:	6013      	strhi	r3, [r2, #0]
 8004388:	f7fe fe40 	bl	800300c <vListInsertEnd>
 800438c:	2001      	movs	r0, #1
 800438e:	b002      	add	sp, #8
 8004390:	bd70      	pop	{r4, r5, r6, pc}
 8004392:	682b      	ldr	r3, [r5, #0]
 8004394:	6adb      	ldr	r3, [r3, #44]	; 0x2c
 8004396:	62c3      	str	r3, [r0, #44]	; 0x2c
 8004398:	e7f8      	b.n	800438c <xTaskPriorityInherit+0x58>
 800439a:	682b      	ldr	r3, [r5, #0]
 800439c:	6d00      	ldr	r0, [r0, #80]	; 0x50
 800439e:	6adb      	ldr	r3, [r3, #44]	; 0x2c
 80043a0:	4298      	cmp	r0, r3
 80043a2:	bf2c      	ite	cs
 80043a4:	2000      	movcs	r0, #0
 80043a6:	2001      	movcc	r0, #1
 80043a8:	e7f1      	b.n	800438e <xTaskPriorityInherit+0x5a>
 80043aa:	bf00      	nop
 80043ac:	20000930 	.word	0x20000930
 80043b0:	2000093c 	.word	0x2000093c
 80043b4:	20000db0 	.word	0x20000db0

080043b8 <xTaskPriorityDisinherit>:
 80043b8:	b513      	push	{r0, r1, r4, lr}
 80043ba:	b910      	cbnz	r0, 80043c2 <xTaskPriorityDisinherit+0xa>
 80043bc:	2000      	movs	r0, #0
 80043be:	b002      	add	sp, #8
 80043c0:	bd10      	pop	{r4, pc}
 80043c2:	4b1c      	ldr	r3, [pc, #112]	; (8004434 <xTaskPriorityDisinherit+0x7c>)
 80043c4:	681c      	ldr	r4, [r3, #0]
 80043c6:	4284      	cmp	r4, r0
 80043c8:	d008      	beq.n	80043dc <xTaskPriorityDisinherit+0x24>
 80043ca:	f04f 0350 	mov.w	r3, #80	; 0x50
 80043ce:	f383 8811 	msr	BASEPRI, r3
 80043d2:	f3bf 8f6f 	isb	sy
 80043d6:	f3bf 8f4f 	dsb	sy
 80043da:	e7fe      	b.n	80043da <xTaskPriorityDisinherit+0x22>
 80043dc:	6d63      	ldr	r3, [r4, #84]	; 0x54
 80043de:	b943      	cbnz	r3, 80043f2 <xTaskPriorityDisinherit+0x3a>
 80043e0:	f04f 0350 	mov.w	r3, #80	; 0x50
 80043e4:	f383 8811 	msr	BASEPRI, r3
 80043e8:	f3bf 8f6f 	isb	sy
 80043ec:	f3bf 8f4f 	dsb	sy
 80043f0:	e7fe      	b.n	80043f0 <xTaskPriorityDisinherit+0x38>
 80043f2:	6ae1      	ldr	r1, [r4, #44]	; 0x2c
 80043f4:	6d22      	ldr	r2, [r4, #80]	; 0x50
 80043f6:	3b01      	subs	r3, #1
 80043f8:	4291      	cmp	r1, r2
 80043fa:	6563      	str	r3, [r4, #84]	; 0x54
 80043fc:	d0de      	beq.n	80043bc <xTaskPriorityDisinherit+0x4>
 80043fe:	2b00      	cmp	r3, #0
 8004400:	d1dc      	bne.n	80043bc <xTaskPriorityDisinherit+0x4>
 8004402:	1d21      	adds	r1, r4, #4
 8004404:	4608      	mov	r0, r1
 8004406:	9101      	str	r1, [sp, #4]
 8004408:	f7fe fe23 	bl	8003052 <uxListRemove>
 800440c:	6d23      	ldr	r3, [r4, #80]	; 0x50
 800440e:	9901      	ldr	r1, [sp, #4]
 8004410:	62e3      	str	r3, [r4, #44]	; 0x2c
 8004412:	f1c3 0238 	rsb	r2, r3, #56	; 0x38
 8004416:	61a2      	str	r2, [r4, #24]
 8004418:	4a07      	ldr	r2, [pc, #28]	; (8004438 <xTaskPriorityDisinherit+0x80>)
 800441a:	6810      	ldr	r0, [r2, #0]
 800441c:	4283      	cmp	r3, r0
 800441e:	bf88      	it	hi
 8004420:	6013      	strhi	r3, [r2, #0]
 8004422:	4a06      	ldr	r2, [pc, #24]	; (800443c <xTaskPriorityDisinherit+0x84>)
 8004424:	2014      	movs	r0, #20
 8004426:	fb00 2003 	mla	r0, r0, r3, r2
 800442a:	f7fe fdef 	bl	800300c <vListInsertEnd>
 800442e:	2001      	movs	r0, #1
 8004430:	e7c5      	b.n	80043be <xTaskPriorityDisinherit+0x6>
 8004432:	bf00      	nop
 8004434:	20000930 	.word	0x20000930
 8004438:	20000db0 	.word	0x20000db0
 800443c:	2000093c 	.word	0x2000093c

08004440 <vTaskPriorityDisinheritAfterTimeout>:
 8004440:	b537      	push	{r0, r1, r2, r4, r5, lr}
 8004442:	4604      	mov	r4, r0
 8004444:	2800      	cmp	r0, #0
 8004446:	d044      	beq.n	80044d2 <vTaskPriorityDisinheritAfterTimeout+0x92>
 8004448:	6d42      	ldr	r2, [r0, #84]	; 0x54
 800444a:	b942      	cbnz	r2, 800445e <vTaskPriorityDisinheritAfterTimeout+0x1e>
 800444c:	f04f 0350 	mov.w	r3, #80	; 0x50
 8004450:	f383 8811 	msr	BASEPRI, r3
 8004454:	f3bf 8f6f 	isb	sy
 8004458:	f3bf 8f4f 	dsb	sy
 800445c:	e7fe      	b.n	800445c <vTaskPriorityDisinheritAfterTimeout+0x1c>
 800445e:	6d03      	ldr	r3, [r0, #80]	; 0x50
 8004460:	4299      	cmp	r1, r3
 8004462:	bf38      	it	cc
 8004464:	4619      	movcc	r1, r3
 8004466:	6ac3      	ldr	r3, [r0, #44]	; 0x2c
 8004468:	428b      	cmp	r3, r1
 800446a:	d032      	beq.n	80044d2 <vTaskPriorityDisinheritAfterTimeout+0x92>
 800446c:	2a01      	cmp	r2, #1
 800446e:	d130      	bne.n	80044d2 <vTaskPriorityDisinheritAfterTimeout+0x92>
 8004470:	4a19      	ldr	r2, [pc, #100]	; (80044d8 <vTaskPriorityDisinheritAfterTimeout+0x98>)
 8004472:	6812      	ldr	r2, [r2, #0]
 8004474:	4282      	cmp	r2, r0
 8004476:	d108      	bne.n	800448a <vTaskPriorityDisinheritAfterTimeout+0x4a>
 8004478:	f04f 0350 	mov.w	r3, #80	; 0x50
 800447c:	f383 8811 	msr	BASEPRI, r3
 8004480:	f3bf 8f6f 	isb	sy
 8004484:	f3bf 8f4f 	dsb	sy
 8004488:	e7fe      	b.n	8004488 <vTaskPriorityDisinheritAfterTimeout+0x48>
 800448a:	6982      	ldr	r2, [r0, #24]
 800448c:	4d13      	ldr	r5, [pc, #76]	; (80044dc <vTaskPriorityDisinheritAfterTimeout+0x9c>)
 800448e:	62c1      	str	r1, [r0, #44]	; 0x2c
 8004490:	2a00      	cmp	r2, #0
 8004492:	f04f 0214 	mov.w	r2, #20
 8004496:	fb02 5303 	mla	r3, r2, r3, r5
 800449a:	6942      	ldr	r2, [r0, #20]
 800449c:	bfa4      	itt	ge
 800449e:	f1c1 0138 	rsbge	r1, r1, #56	; 0x38
 80044a2:	6181      	strge	r1, [r0, #24]
 80044a4:	429a      	cmp	r2, r3
 80044a6:	d114      	bne.n	80044d2 <vTaskPriorityDisinheritAfterTimeout+0x92>
 80044a8:	1d01      	adds	r1, r0, #4
 80044aa:	4608      	mov	r0, r1
 80044ac:	9101      	str	r1, [sp, #4]
 80044ae:	f7fe fdd0 	bl	8003052 <uxListRemove>
 80044b2:	4a0b      	ldr	r2, [pc, #44]	; (80044e0 <vTaskPriorityDisinheritAfterTimeout+0xa0>)
 80044b4:	6ae3      	ldr	r3, [r4, #44]	; 0x2c
 80044b6:	6810      	ldr	r0, [r2, #0]
 80044b8:	9901      	ldr	r1, [sp, #4]
 80044ba:	4283      	cmp	r3, r0
 80044bc:	f04f 0014 	mov.w	r0, #20
 80044c0:	fb00 5003 	mla	r0, r0, r3, r5
 80044c4:	bf88      	it	hi
 80044c6:	6013      	strhi	r3, [r2, #0]
 80044c8:	b003      	add	sp, #12
 80044ca:	e8bd 4030 	ldmia.w	sp!, {r4, r5, lr}
 80044ce:	f7fe bd9d 	b.w	800300c <vListInsertEnd>
 80044d2:	b003      	add	sp, #12
 80044d4:	bd30      	pop	{r4, r5, pc}
 80044d6:	bf00      	nop
 80044d8:	20000930 	.word	0x20000930
 80044dc:	2000093c 	.word	0x2000093c
 80044e0:	20000db0 	.word	0x20000db0

080044e4 <pvTaskIncrementMutexHeldCount>:
 80044e4:	4b04      	ldr	r3, [pc, #16]	; (80044f8 <pvTaskIncrementMutexHeldCount+0x14>)
 80044e6:	681a      	ldr	r2, [r3, #0]
 80044e8:	b11a      	cbz	r2, 80044f2 <pvTaskIncrementMutexHeldCount+0xe>
 80044ea:	6819      	ldr	r1, [r3, #0]
 80044ec:	6d4a      	ldr	r2, [r1, #84]	; 0x54
 80044ee:	3201      	adds	r2, #1
 80044f0:	654a      	str	r2, [r1, #84]	; 0x54
 80044f2:	6818      	ldr	r0, [r3, #0]
 80044f4:	4770      	bx	lr
 80044f6:	bf00      	nop
 80044f8:	20000930 	.word	0x20000930

080044fc <prvCheckForValidListAndQueue>:
 80044fc:	b5f7      	push	{r0, r1, r2, r4, r5, r6, r7, lr}
 80044fe:	4c11      	ldr	r4, [pc, #68]	; (8004544 <prvCheckForValidListAndQueue+0x48>)
 8004500:	f000 fa50 	bl	80049a4 <vPortEnterCritical>
 8004504:	6825      	ldr	r5, [r4, #0]
 8004506:	b9bd      	cbnz	r5, 8004538 <prvCheckForValidListAndQueue+0x3c>
 8004508:	4f0f      	ldr	r7, [pc, #60]	; (8004548 <prvCheckForValidListAndQueue+0x4c>)
 800450a:	4e10      	ldr	r6, [pc, #64]	; (800454c <prvCheckForValidListAndQueue+0x50>)
 800450c:	4638      	mov	r0, r7
 800450e:	f7fe fd6f 	bl	8002ff0 <vListInitialise>
 8004512:	4630      	mov	r0, r6
 8004514:	f7fe fd6c 	bl	8002ff0 <vListInitialise>
 8004518:	4b0d      	ldr	r3, [pc, #52]	; (8004550 <prvCheckForValidListAndQueue+0x54>)
 800451a:	4a0e      	ldr	r2, [pc, #56]	; (8004554 <prvCheckForValidListAndQueue+0x58>)
 800451c:	601f      	str	r7, [r3, #0]
 800451e:	4b0e      	ldr	r3, [pc, #56]	; (8004558 <prvCheckForValidListAndQueue+0x5c>)
 8004520:	2110      	movs	r1, #16
 8004522:	601e      	str	r6, [r3, #0]
 8004524:	200a      	movs	r0, #10
 8004526:	4b0d      	ldr	r3, [pc, #52]	; (800455c <prvCheckForValidListAndQueue+0x60>)
 8004528:	9500      	str	r5, [sp, #0]
 800452a:	f7fe fe6f 	bl	800320c <xQueueGenericCreateStatic>
 800452e:	6020      	str	r0, [r4, #0]
 8004530:	b110      	cbz	r0, 8004538 <prvCheckForValidListAndQueue+0x3c>
 8004532:	490b      	ldr	r1, [pc, #44]	; (8004560 <prvCheckForValidListAndQueue+0x64>)
 8004534:	f7ff fa38 	bl	80039a8 <vQueueAddToRegistry>
 8004538:	b003      	add	sp, #12
 800453a:	e8bd 40f0 	ldmia.w	sp!, {r4, r5, r6, r7, lr}
 800453e:	f000 ba51 	b.w	80049e4 <vPortExitCritical>
 8004542:	bf00      	nop
 8004544:	20000f54 	.word	0x20000f54
 8004548:	20000ed8 	.word	0x20000ed8
 800454c:	20000eec 	.word	0x20000eec
 8004550:	20000e30 	.word	0x20000e30
 8004554:	20000e38 	.word	0x20000e38
 8004558:	20000e34 	.word	0x20000e34
 800455c:	20000f04 	.word	0x20000f04
 8004560:	08004fd2 	.word	0x08004fd2

08004564 <prvInsertTimerInActiveList>:
 8004564:	4291      	cmp	r1, r2
 8004566:	b508      	push	{r3, lr}
 8004568:	6041      	str	r1, [r0, #4]
 800456a:	6100      	str	r0, [r0, #16]
 800456c:	d80a      	bhi.n	8004584 <prvInsertTimerInActiveList+0x20>
 800456e:	1ad3      	subs	r3, r2, r3
 8004570:	6982      	ldr	r2, [r0, #24]
 8004572:	4293      	cmp	r3, r2
 8004574:	d20d      	bcs.n	8004592 <prvInsertTimerInActiveList+0x2e>
 8004576:	4b08      	ldr	r3, [pc, #32]	; (8004598 <prvInsertTimerInActiveList+0x34>)
 8004578:	1d01      	adds	r1, r0, #4
 800457a:	6818      	ldr	r0, [r3, #0]
 800457c:	f7fe fd52 	bl	8003024 <vListInsert>
 8004580:	2000      	movs	r0, #0
 8004582:	bd08      	pop	{r3, pc}
 8004584:	429a      	cmp	r2, r3
 8004586:	d201      	bcs.n	800458c <prvInsertTimerInActiveList+0x28>
 8004588:	4299      	cmp	r1, r3
 800458a:	d202      	bcs.n	8004592 <prvInsertTimerInActiveList+0x2e>
 800458c:	4b03      	ldr	r3, [pc, #12]	; (800459c <prvInsertTimerInActiveList+0x38>)
 800458e:	1d01      	adds	r1, r0, #4
 8004590:	e7f3      	b.n	800457a <prvInsertTimerInActiveList+0x16>
 8004592:	2001      	movs	r0, #1
 8004594:	e7f5      	b.n	8004582 <prvInsertTimerInActiveList+0x1e>
 8004596:	bf00      	nop
 8004598:	20000e34 	.word	0x20000e34
 800459c:	20000e30 	.word	0x20000e30

080045a0 <xTimerCreateTimerTask>:
 80045a0:	b510      	push	{r4, lr}
 80045a2:	b088      	sub	sp, #32
 80045a4:	f7ff ffaa 	bl	80044fc <prvCheckForValidListAndQueue>
 80045a8:	4b12      	ldr	r3, [pc, #72]	; (80045f4 <xTimerCreateTimerTask+0x54>)
 80045aa:	681b      	ldr	r3, [r3, #0]
 80045ac:	b1b3      	cbz	r3, 80045dc <xTimerCreateTimerTask+0x3c>
 80045ae:	2400      	movs	r4, #0
 80045b0:	aa07      	add	r2, sp, #28
 80045b2:	a906      	add	r1, sp, #24
 80045b4:	a805      	add	r0, sp, #20
 80045b6:	e9cd 4405 	strd	r4, r4, [sp, #20]
 80045ba:	f7fe fd0d 	bl	8002fd8 <vApplicationGetTimerTaskMemory>
 80045be:	9b05      	ldr	r3, [sp, #20]
 80045c0:	9302      	str	r3, [sp, #8]
 80045c2:	9b06      	ldr	r3, [sp, #24]
 80045c4:	9301      	str	r3, [sp, #4]
 80045c6:	2302      	movs	r3, #2
 80045c8:	9300      	str	r3, [sp, #0]
 80045ca:	9a07      	ldr	r2, [sp, #28]
 80045cc:	490a      	ldr	r1, [pc, #40]	; (80045f8 <xTimerCreateTimerTask+0x58>)
 80045ce:	480b      	ldr	r0, [pc, #44]	; (80045fc <xTimerCreateTimerTask+0x5c>)
 80045d0:	4623      	mov	r3, r4
 80045d2:	f7ff fb86 	bl	8003ce2 <xTaskCreateStatic>
 80045d6:	4b0a      	ldr	r3, [pc, #40]	; (8004600 <xTimerCreateTimerTask+0x60>)
 80045d8:	6018      	str	r0, [r3, #0]
 80045da:	b940      	cbnz	r0, 80045ee <xTimerCreateTimerTask+0x4e>
 80045dc:	f04f 0350 	mov.w	r3, #80	; 0x50
 80045e0:	f383 8811 	msr	BASEPRI, r3
 80045e4:	f3bf 8f6f 	isb	sy
 80045e8:	f3bf 8f4f 	dsb	sy
 80045ec:	e7fe      	b.n	80045ec <xTimerCreateTimerTask+0x4c>
 80045ee:	2001      	movs	r0, #1
 80045f0:	b008      	add	sp, #32
 80045f2:	bd10      	pop	{r4, pc}
 80045f4:	20000f54 	.word	0x20000f54
 80045f8:	08004fd7 	.word	0x08004fd7
 80045fc:	08004709 	.word	0x08004709
 8004600:	20000f58 	.word	0x20000f58

08004604 <xTimerGenericCommand>:
 8004604:	b57f      	push	{r0, r1, r2, r3, r4, r5, r6, lr}
 8004606:	4616      	mov	r6, r2
 8004608:	4604      	mov	r4, r0
 800460a:	461a      	mov	r2, r3
 800460c:	b940      	cbnz	r0, 8004620 <xTimerGenericCommand+0x1c>
 800460e:	f04f 0350 	mov.w	r3, #80	; 0x50
 8004612:	f383 8811 	msr	BASEPRI, r3
 8004616:	f3bf 8f6f 	isb	sy
 800461a:	f3bf 8f4f 	dsb	sy
 800461e:	e7fe      	b.n	800461e <xTimerGenericCommand+0x1a>
 8004620:	4d0d      	ldr	r5, [pc, #52]	; (8004658 <xTimerGenericCommand+0x54>)
 8004622:	6828      	ldr	r0, [r5, #0]
 8004624:	b180      	cbz	r0, 8004648 <xTimerGenericCommand+0x44>
 8004626:	2905      	cmp	r1, #5
 8004628:	e9cd 1600 	strd	r1, r6, [sp]
 800462c:	9402      	str	r4, [sp, #8]
 800462e:	dc0d      	bgt.n	800464c <xTimerGenericCommand+0x48>
 8004630:	f7ff fe70 	bl	8004314 <xTaskGetSchedulerState>
 8004634:	2300      	movs	r3, #0
 8004636:	2802      	cmp	r0, #2
 8004638:	bf08      	it	eq
 800463a:	9a08      	ldreq	r2, [sp, #32]
 800463c:	6828      	ldr	r0, [r5, #0]
 800463e:	bf18      	it	ne
 8004640:	461a      	movne	r2, r3
 8004642:	4669      	mov	r1, sp
 8004644:	f7fe fe57 	bl	80032f6 <xQueueGenericSend>
 8004648:	b004      	add	sp, #16
 800464a:	bd70      	pop	{r4, r5, r6, pc}
 800464c:	2300      	movs	r3, #0
 800464e:	4669      	mov	r1, sp
 8004650:	f7fe ff54 	bl	80034fc <xQueueGenericSendFromISR>
 8004654:	e7f8      	b.n	8004648 <xTimerGenericCommand+0x44>
 8004656:	bf00      	nop
 8004658:	20000f54 	.word	0x20000f54

0800465c <prvSampleTimeNow>:
 800465c:	e92d 47ff 	stmdb	sp!, {r0, r1, r2, r3, r4, r5, r6, r7, r8, r9, sl, lr}
 8004660:	f8df 80a0 	ldr.w	r8, [pc, #160]	; 8004704 <prvSampleTimeNow+0xa8>
 8004664:	4606      	mov	r6, r0
 8004666:	f7ff fbf1 	bl	8003e4c <xTaskGetTickCount>
 800466a:	f8d8 3000 	ldr.w	r3, [r8]
 800466e:	4283      	cmp	r3, r0
 8004670:	4605      	mov	r5, r0
 8004672:	d90b      	bls.n	800468c <prvSampleTimeNow+0x30>
 8004674:	4f21      	ldr	r7, [pc, #132]	; (80046fc <prvSampleTimeNow+0xa0>)
 8004676:	f04f 0900 	mov.w	r9, #0
 800467a:	683b      	ldr	r3, [r7, #0]
 800467c:	681a      	ldr	r2, [r3, #0]
 800467e:	b96a      	cbnz	r2, 800469c <prvSampleTimeNow+0x40>
 8004680:	4a1f      	ldr	r2, [pc, #124]	; (8004700 <prvSampleTimeNow+0xa4>)
 8004682:	6811      	ldr	r1, [r2, #0]
 8004684:	6039      	str	r1, [r7, #0]
 8004686:	6013      	str	r3, [r2, #0]
 8004688:	2301      	movs	r3, #1
 800468a:	e000      	b.n	800468e <prvSampleTimeNow+0x32>
 800468c:	2300      	movs	r3, #0
 800468e:	4628      	mov	r0, r5
 8004690:	6033      	str	r3, [r6, #0]
 8004692:	f8c8 5000 	str.w	r5, [r8]
 8004696:	b004      	add	sp, #16
 8004698:	e8bd 87f0 	ldmia.w	sp!, {r4, r5, r6, r7, r8, r9, sl, pc}
 800469c:	68db      	ldr	r3, [r3, #12]
 800469e:	68dc      	ldr	r4, [r3, #12]
 80046a0:	f8d3 a000 	ldr.w	sl, [r3]
 80046a4:	1d21      	adds	r1, r4, #4
 80046a6:	4608      	mov	r0, r1
 80046a8:	9103      	str	r1, [sp, #12]
 80046aa:	f7fe fcd2 	bl	8003052 <uxListRemove>
 80046ae:	6a23      	ldr	r3, [r4, #32]
 80046b0:	4620      	mov	r0, r4
 80046b2:	4798      	blx	r3
 80046b4:	f894 3028 	ldrb.w	r3, [r4, #40]	; 0x28
 80046b8:	9903      	ldr	r1, [sp, #12]
 80046ba:	f013 0f04 	tst.w	r3, #4
 80046be:	d0dc      	beq.n	800467a <prvSampleTimeNow+0x1e>
 80046c0:	69a3      	ldr	r3, [r4, #24]
 80046c2:	4453      	add	r3, sl
 80046c4:	459a      	cmp	sl, r3
 80046c6:	d205      	bcs.n	80046d4 <prvSampleTimeNow+0x78>
 80046c8:	6838      	ldr	r0, [r7, #0]
 80046ca:	6063      	str	r3, [r4, #4]
 80046cc:	6124      	str	r4, [r4, #16]
 80046ce:	f7fe fca9 	bl	8003024 <vListInsert>
 80046d2:	e7d2      	b.n	800467a <prvSampleTimeNow+0x1e>
 80046d4:	2300      	movs	r3, #0
 80046d6:	f8cd 9000 	str.w	r9, [sp]
 80046da:	4652      	mov	r2, sl
 80046dc:	4619      	mov	r1, r3
 80046de:	4620      	mov	r0, r4
 80046e0:	f7ff ff90 	bl	8004604 <xTimerGenericCommand>
 80046e4:	2800      	cmp	r0, #0
 80046e6:	d1c8      	bne.n	800467a <prvSampleTimeNow+0x1e>
 80046e8:	f04f 0350 	mov.w	r3, #80	; 0x50
 80046ec:	f383 8811 	msr	BASEPRI, r3
 80046f0:	f3bf 8f6f 	isb	sy
 80046f4:	f3bf 8f4f 	dsb	sy
 80046f8:	e7fe      	b.n	80046f8 <prvSampleTimeNow+0x9c>
 80046fa:	bf00      	nop
 80046fc:	20000e30 	.word	0x20000e30
 8004700:	20000e34 	.word	0x20000e34
 8004704:	20000f00 	.word	0x20000f00

08004708 <prvTimerTask>:
 8004708:	e92d 43f0 	stmdb	sp!, {r4, r5, r6, r7, r8, r9, lr}
 800470c:	4d6e      	ldr	r5, [pc, #440]	; (80048c8 <prvTimerTask+0x1c0>)
 800470e:	4e6f      	ldr	r6, [pc, #444]	; (80048cc <prvTimerTask+0x1c4>)
 8004710:	b089      	sub	sp, #36	; 0x24
 8004712:	682b      	ldr	r3, [r5, #0]
 8004714:	f8d3 8000 	ldr.w	r8, [r3]
 8004718:	f1b8 0f00 	cmp.w	r8, #0
 800471c:	d035      	beq.n	800478a <prvTimerTask+0x82>
 800471e:	68db      	ldr	r3, [r3, #12]
 8004720:	f8d3 8000 	ldr.w	r8, [r3]
 8004724:	2400      	movs	r4, #0
 8004726:	f7ff fb89 	bl	8003e3c <vTaskSuspendAll>
 800472a:	a804      	add	r0, sp, #16
 800472c:	f7ff ff96 	bl	800465c <prvSampleTimeNow>
 8004730:	9b04      	ldr	r3, [sp, #16]
 8004732:	4681      	mov	r9, r0
 8004734:	2b00      	cmp	r3, #0
 8004736:	d169      	bne.n	800480c <prvTimerTask+0x104>
 8004738:	2c00      	cmp	r4, #0
 800473a:	d14c      	bne.n	80047d6 <prvTimerTask+0xce>
 800473c:	4540      	cmp	r0, r8
 800473e:	d350      	bcc.n	80047e2 <prvTimerTask+0xda>
 8004740:	f7ff fc20 	bl	8003f84 <xTaskResumeAll>
 8004744:	682b      	ldr	r3, [r5, #0]
 8004746:	68db      	ldr	r3, [r3, #12]
 8004748:	68df      	ldr	r7, [r3, #12]
 800474a:	1d38      	adds	r0, r7, #4
 800474c:	f7fe fc81 	bl	8003052 <uxListRemove>
 8004750:	f897 3028 	ldrb.w	r3, [r7, #40]	; 0x28
 8004754:	0758      	lsls	r0, r3, #29
 8004756:	d51a      	bpl.n	800478e <prvTimerTask+0x86>
 8004758:	69b9      	ldr	r1, [r7, #24]
 800475a:	4643      	mov	r3, r8
 800475c:	464a      	mov	r2, r9
 800475e:	4441      	add	r1, r8
 8004760:	4638      	mov	r0, r7
 8004762:	f7ff feff 	bl	8004564 <prvInsertTimerInActiveList>
 8004766:	b1b0      	cbz	r0, 8004796 <prvTimerTask+0x8e>
 8004768:	9400      	str	r4, [sp, #0]
 800476a:	4623      	mov	r3, r4
 800476c:	4642      	mov	r2, r8
 800476e:	4621      	mov	r1, r4
 8004770:	4638      	mov	r0, r7
 8004772:	f7ff ff47 	bl	8004604 <xTimerGenericCommand>
 8004776:	b970      	cbnz	r0, 8004796 <prvTimerTask+0x8e>
 8004778:	f04f 0350 	mov.w	r3, #80	; 0x50
 800477c:	f383 8811 	msr	BASEPRI, r3
 8004780:	f3bf 8f6f 	isb	sy
 8004784:	f3bf 8f4f 	dsb	sy
 8004788:	e7fe      	b.n	8004788 <prvTimerTask+0x80>
 800478a:	2401      	movs	r4, #1
 800478c:	e7cb      	b.n	8004726 <prvTimerTask+0x1e>
 800478e:	f023 0301 	bic.w	r3, r3, #1
 8004792:	f887 3028 	strb.w	r3, [r7, #40]	; 0x28
 8004796:	6a3b      	ldr	r3, [r7, #32]
 8004798:	4638      	mov	r0, r7
 800479a:	4798      	blx	r3
 800479c:	6830      	ldr	r0, [r6, #0]
 800479e:	2200      	movs	r2, #0
 80047a0:	a904      	add	r1, sp, #16
 80047a2:	f7fe ff0d 	bl	80035c0 <xQueueReceive>
 80047a6:	2800      	cmp	r0, #0
 80047a8:	d0b3      	beq.n	8004712 <prvTimerTask+0xa>
 80047aa:	9b04      	ldr	r3, [sp, #16]
 80047ac:	9806      	ldr	r0, [sp, #24]
 80047ae:	2b00      	cmp	r3, #0
 80047b0:	db2f      	blt.n	8004812 <prvTimerTask+0x10a>
 80047b2:	9c06      	ldr	r4, [sp, #24]
 80047b4:	6963      	ldr	r3, [r4, #20]
 80047b6:	2b00      	cmp	r3, #0
 80047b8:	d132      	bne.n	8004820 <prvTimerTask+0x118>
 80047ba:	a803      	add	r0, sp, #12
 80047bc:	f7ff ff4e 	bl	800465c <prvSampleTimeNow>
 80047c0:	9b04      	ldr	r3, [sp, #16]
 80047c2:	4602      	mov	r2, r0
 80047c4:	2b09      	cmp	r3, #9
 80047c6:	d8e9      	bhi.n	800479c <prvTimerTask+0x94>
 80047c8:	e8df f003 	tbb	[pc, r3]
 80047cc:	572e2e2e 	.word	0x572e2e2e
 80047d0:	2e2e765e 	.word	0x2e2e765e
 80047d4:	5e57      	.short	0x5e57
 80047d6:	4b3e      	ldr	r3, [pc, #248]	; (80048d0 <prvTimerTask+0x1c8>)
 80047d8:	681b      	ldr	r3, [r3, #0]
 80047da:	681c      	ldr	r4, [r3, #0]
 80047dc:	fab4 f484 	clz	r4, r4
 80047e0:	0964      	lsrs	r4, r4, #5
 80047e2:	6830      	ldr	r0, [r6, #0]
 80047e4:	4622      	mov	r2, r4
 80047e6:	eba8 0109 	sub.w	r1, r8, r9
 80047ea:	f7ff f8ef 	bl	80039cc <vQueueWaitForMessageRestricted>
 80047ee:	f7ff fbc9 	bl	8003f84 <xTaskResumeAll>
 80047f2:	2800      	cmp	r0, #0
 80047f4:	d1d2      	bne.n	800479c <prvTimerTask+0x94>
 80047f6:	f04f 23e0 	mov.w	r3, #3758153728	; 0xe000e000
 80047fa:	f04f 5280 	mov.w	r2, #268435456	; 0x10000000
 80047fe:	f8c3 2d04 	str.w	r2, [r3, #3332]	; 0xd04
 8004802:	f3bf 8f4f 	dsb	sy
 8004806:	f3bf 8f6f 	isb	sy
 800480a:	e7c7      	b.n	800479c <prvTimerTask+0x94>
 800480c:	f7ff fbba 	bl	8003f84 <xTaskResumeAll>
 8004810:	e7c4      	b.n	800479c <prvTimerTask+0x94>
 8004812:	9b05      	ldr	r3, [sp, #20]
 8004814:	9907      	ldr	r1, [sp, #28]
 8004816:	4798      	blx	r3
 8004818:	9b04      	ldr	r3, [sp, #16]
 800481a:	2b00      	cmp	r3, #0
 800481c:	dbbe      	blt.n	800479c <prvTimerTask+0x94>
 800481e:	e7c8      	b.n	80047b2 <prvTimerTask+0xaa>
 8004820:	1d20      	adds	r0, r4, #4
 8004822:	f7fe fc16 	bl	8003052 <uxListRemove>
 8004826:	e7c8      	b.n	80047ba <prvTimerTask+0xb2>
 8004828:	f894 3028 	ldrb.w	r3, [r4, #40]	; 0x28
 800482c:	69a1      	ldr	r1, [r4, #24]
 800482e:	f043 0301 	orr.w	r3, r3, #1
 8004832:	f884 3028 	strb.w	r3, [r4, #40]	; 0x28
 8004836:	9b05      	ldr	r3, [sp, #20]
 8004838:	4620      	mov	r0, r4
 800483a:	4419      	add	r1, r3
 800483c:	f7ff fe92 	bl	8004564 <prvInsertTimerInActiveList>
 8004840:	2800      	cmp	r0, #0
 8004842:	d0ab      	beq.n	800479c <prvTimerTask+0x94>
 8004844:	6a23      	ldr	r3, [r4, #32]
 8004846:	4620      	mov	r0, r4
 8004848:	4798      	blx	r3
 800484a:	f894 3028 	ldrb.w	r3, [r4, #40]	; 0x28
 800484e:	0759      	lsls	r1, r3, #29
 8004850:	d5a4      	bpl.n	800479c <prvTimerTask+0x94>
 8004852:	69a2      	ldr	r2, [r4, #24]
 8004854:	9905      	ldr	r1, [sp, #20]
 8004856:	2300      	movs	r3, #0
 8004858:	440a      	add	r2, r1
 800485a:	9300      	str	r3, [sp, #0]
 800485c:	4619      	mov	r1, r3
 800485e:	4620      	mov	r0, r4
 8004860:	f7ff fed0 	bl	8004604 <xTimerGenericCommand>
 8004864:	2800      	cmp	r0, #0
 8004866:	d199      	bne.n	800479c <prvTimerTask+0x94>
 8004868:	f04f 0350 	mov.w	r3, #80	; 0x50
 800486c:	f383 8811 	msr	BASEPRI, r3
 8004870:	f3bf 8f6f 	isb	sy
 8004874:	f3bf 8f4f 	dsb	sy
 8004878:	e7fe      	b.n	8004878 <prvTimerTask+0x170>
 800487a:	f894 3028 	ldrb.w	r3, [r4, #40]	; 0x28
 800487e:	f023 0301 	bic.w	r3, r3, #1
 8004882:	f884 3028 	strb.w	r3, [r4, #40]	; 0x28
 8004886:	e789      	b.n	800479c <prvTimerTask+0x94>
 8004888:	f894 3028 	ldrb.w	r3, [r4, #40]	; 0x28
 800488c:	f043 0301 	orr.w	r3, r3, #1
 8004890:	f884 3028 	strb.w	r3, [r4, #40]	; 0x28
 8004894:	9905      	ldr	r1, [sp, #20]
 8004896:	61a1      	str	r1, [r4, #24]
 8004898:	b941      	cbnz	r1, 80048ac <prvTimerTask+0x1a4>
 800489a:	f04f 0350 	mov.w	r3, #80	; 0x50
 800489e:	f383 8811 	msr	BASEPRI, r3
 80048a2:	f3bf 8f6f 	isb	sy
 80048a6:	f3bf 8f4f 	dsb	sy
 80048aa:	e7fe      	b.n	80048aa <prvTimerTask+0x1a2>
 80048ac:	4603      	mov	r3, r0
 80048ae:	4401      	add	r1, r0
 80048b0:	4620      	mov	r0, r4
 80048b2:	f7ff fe57 	bl	8004564 <prvInsertTimerInActiveList>
 80048b6:	e771      	b.n	800479c <prvTimerTask+0x94>
 80048b8:	f894 3028 	ldrb.w	r3, [r4, #40]	; 0x28
 80048bc:	079a      	lsls	r2, r3, #30
 80048be:	d4de      	bmi.n	800487e <prvTimerTask+0x176>
 80048c0:	4620      	mov	r0, r4
 80048c2:	f000 fa71 	bl	8004da8 <vPortFree>
 80048c6:	e769      	b.n	800479c <prvTimerTask+0x94>
 80048c8:	20000e30 	.word	0x20000e30
 80048cc:	20000f54 	.word	0x20000f54
 80048d0:	20000e34 	.word	0x20000e34

080048d4 <prvPortStartFirstTask>:
 80048d4:	4808      	ldr	r0, [pc, #32]	; (80048f8 <prvPortStartFirstTask+0x24>)
 80048d6:	6800      	ldr	r0, [r0, #0]
 80048d8:	6800      	ldr	r0, [r0, #0]
 80048da:	f380 8808 	msr	MSP, r0
 80048de:	f04f 0000 	mov.w	r0, #0
 80048e2:	f380 8814 	msr	CONTROL, r0
 80048e6:	b662      	cpsie	i
 80048e8:	b661      	cpsie	f
 80048ea:	f3bf 8f4f 	dsb	sy
 80048ee:	f3bf 8f6f 	isb	sy
 80048f2:	df00      	svc	0
 80048f4:	bf00      	nop
 80048f6:	0000      	.short	0x0000
 80048f8:	e000ed08 	.word	0xe000ed08

080048fc <vPortEnableVFP>:
 80048fc:	f8df 000c 	ldr.w	r0, [pc, #12]	; 800490c <vPortEnableVFP+0x10>
 8004900:	6801      	ldr	r1, [r0, #0]
 8004902:	f441 0170 	orr.w	r1, r1, #15728640	; 0xf00000
 8004906:	6001      	str	r1, [r0, #0]
 8004908:	4770      	bx	lr
 800490a:	0000      	.short	0x0000
 800490c:	e000ed88 	.word	0xe000ed88

08004910 <prvTaskExitError>:
 8004910:	b082      	sub	sp, #8
 8004912:	2300      	movs	r3, #0
 8004914:	9301      	str	r3, [sp, #4]
 8004916:	4b0d      	ldr	r3, [pc, #52]	; (800494c <prvTaskExitError+0x3c>)
 8004918:	681b      	ldr	r3, [r3, #0]
 800491a:	3301      	adds	r3, #1
 800491c:	d008      	beq.n	8004930 <prvTaskExitError+0x20>
 800491e:	f04f 0350 	mov.w	r3, #80	; 0x50
 8004922:	f383 8811 	msr	BASEPRI, r3
 8004926:	f3bf 8f6f 	isb	sy
 800492a:	f3bf 8f4f 	dsb	sy
 800492e:	e7fe      	b.n	800492e <prvTaskExitError+0x1e>
 8004930:	f04f 0350 	mov.w	r3, #80	; 0x50
 8004934:	f383 8811 	msr	BASEPRI, r3
 8004938:	f3bf 8f6f 	isb	sy
 800493c:	f3bf 8f4f 	dsb	sy
 8004940:	9b01      	ldr	r3, [sp, #4]
 8004942:	2b00      	cmp	r3, #0
 8004944:	d0fc      	beq.n	8004940 <prvTaskExitError+0x30>
 8004946:	b002      	add	sp, #8
 8004948:	4770      	bx	lr
 800494a:	bf00      	nop
 800494c:	2000001c 	.word	0x2000001c

08004950 <pxPortInitialiseStack>:
 8004950:	f04f 7380 	mov.w	r3, #16777216	; 0x1000000
 8004954:	f840 3c04 	str.w	r3, [r0, #-4]
 8004958:	4b07      	ldr	r3, [pc, #28]	; (8004978 <pxPortInitialiseStack+0x28>)
 800495a:	f840 3c0c 	str.w	r3, [r0, #-12]
 800495e:	f021 0101 	bic.w	r1, r1, #1
 8004962:	f06f 0302 	mvn.w	r3, #2
 8004966:	f840 1c08 	str.w	r1, [r0, #-8]
 800496a:	f840 2c20 	str.w	r2, [r0, #-32]
 800496e:	f840 3c24 	str.w	r3, [r0, #-36]
 8004972:	3844      	subs	r0, #68	; 0x44
 8004974:	4770      	bx	lr
 8004976:	bf00      	nop
 8004978:	08004911 	.word	0x08004911
 800497c:	00000000 	.word	0x00000000

08004980 <SVC_Handler>:
 8004980:	4b07      	ldr	r3, [pc, #28]	; (80049a0 <pxCurrentTCBConst2>)
 8004982:	6819      	ldr	r1, [r3, #0]
 8004984:	6808      	ldr	r0, [r1, #0]
 8004986:	e8b0 4ff0 	ldmia.w	r0!, {r4, r5, r6, r7, r8, r9, sl, fp, lr}
 800498a:	f380 8809 	msr	PSP, r0
 800498e:	f3bf 8f6f 	isb	sy
 8004992:	f04f 0000 	mov.w	r0, #0
 8004996:	f380 8811 	msr	BASEPRI, r0
 800499a:	4770      	bx	lr
 800499c:	f3af 8000 	nop.w

080049a0 <pxCurrentTCBConst2>:
 80049a0:	20000930 	.word	0x20000930

080049a4 <vPortEnterCritical>:
 80049a4:	f04f 0350 	mov.w	r3, #80	; 0x50
 80049a8:	f383 8811 	msr	BASEPRI, r3
 80049ac:	f3bf 8f6f 	isb	sy
 80049b0:	f3bf 8f4f 	dsb	sy
 80049b4:	4a0a      	ldr	r2, [pc, #40]	; (80049e0 <vPortEnterCritical+0x3c>)
 80049b6:	6813      	ldr	r3, [r2, #0]
 80049b8:	3301      	adds	r3, #1
 80049ba:	2b01      	cmp	r3, #1
 80049bc:	6013      	str	r3, [r2, #0]
 80049be:	d10e      	bne.n	80049de <vPortEnterCritical+0x3a>
 80049c0:	f04f 23e0 	mov.w	r3, #3758153728	; 0xe000e000
 80049c4:	f8d3 3d04 	ldr.w	r3, [r3, #3332]	; 0xd04
 80049c8:	b2db      	uxtb	r3, r3
 80049ca:	b143      	cbz	r3, 80049de <vPortEnterCritical+0x3a>
 80049cc:	f04f 0350 	mov.w	r3, #80	; 0x50
 80049d0:	f383 8811 	msr	BASEPRI, r3
 80049d4:	f3bf 8f6f 	isb	sy
 80049d8:	f3bf 8f4f 	dsb	sy
 80049dc:	e7fe      	b.n	80049dc <vPortEnterCritical+0x38>
 80049de:	4770      	bx	lr
 80049e0:	2000001c 	.word	0x2000001c

080049e4 <vPortExitCritical>:
 80049e4:	4a08      	ldr	r2, [pc, #32]	; (8004a08 <vPortExitCritical+0x24>)
 80049e6:	6813      	ldr	r3, [r2, #0]
 80049e8:	b943      	cbnz	r3, 80049fc <vPortExitCritical+0x18>
 80049ea:	f04f 0350 	mov.w	r3, #80	; 0x50
 80049ee:	f383 8811 	msr	BASEPRI, r3
 80049f2:	f3bf 8f6f 	isb	sy
 80049f6:	f3bf 8f4f 	dsb	sy
 80049fa:	e7fe      	b.n	80049fa <vPortExitCritical+0x16>
 80049fc:	3b01      	subs	r3, #1
 80049fe:	6013      	str	r3, [r2, #0]
 8004a00:	b90b      	cbnz	r3, 8004a06 <vPortExitCritical+0x22>
 8004a02:	f383 8811 	msr	BASEPRI, r3
 8004a06:	4770      	bx	lr
 8004a08:	2000001c 	.word	0x2000001c
 8004a0c:	00000000 	.word	0x00000000

08004a10 <PendSV_Handler>:
 8004a10:	f3ef 8009 	mrs	r0, PSP
 8004a14:	f3bf 8f6f 	isb	sy
 8004a18:	4b15      	ldr	r3, [pc, #84]	; (8004a70 <pxCurrentTCBConst>)
 8004a1a:	681a      	ldr	r2, [r3, #0]
 8004a1c:	f01e 0f10 	tst.w	lr, #16
 8004a20:	bf08      	it	eq
 8004a22:	ed20 8a10 	vstmdbeq	r0!, {s16-s31}
 8004a26:	e920 4ff0 	stmdb	r0!, {r4, r5, r6, r7, r8, r9, sl, fp, lr}
 8004a2a:	6010      	str	r0, [r2, #0]
 8004a2c:	e92d 0009 	stmdb	sp!, {r0, r3}
 8004a30:	f04f 0050 	mov.w	r0, #80	; 0x50
 8004a34:	f380 8811 	msr	BASEPRI, r0
 8004a38:	f3bf 8f4f 	dsb	sy
 8004a3c:	f3bf 8f6f 	isb	sy
 8004a40:	f7ff fb38 	bl	80040b4 <vTaskSwitchContext>
 8004a44:	f04f 0000 	mov.w	r0, #0
 8004a48:	f380 8811 	msr	BASEPRI, r0
 8004a4c:	bc09      	pop	{r0, r3}
 8004a4e:	6819      	ldr	r1, [r3, #0]
 8004a50:	6808      	ldr	r0, [r1, #0]
 8004a52:	e8b0 4ff0 	ldmia.w	r0!, {r4, r5, r6, r7, r8, r9, sl, fp, lr}
 8004a56:	f01e 0f10 	tst.w	lr, #16
 8004a5a:	bf08      	it	eq
 8004a5c:	ecb0 8a10 	vldmiaeq	r0!, {s16-s31}
 8004a60:	f380 8809 	msr	PSP, r0
 8004a64:	f3bf 8f6f 	isb	sy
 8004a68:	4770      	bx	lr
 8004a6a:	bf00      	nop
 8004a6c:	f3af 8000 	nop.w

08004a70 <pxCurrentTCBConst>:
 8004a70:	20000930 	.word	0x20000930

08004a74 <xPortSysTickHandler>:
 8004a74:	b508      	push	{r3, lr}
 8004a76:	f04f 0350 	mov.w	r3, #80	; 0x50
 8004a7a:	f383 8811 	msr	BASEPRI, r3
 8004a7e:	f3bf 8f6f 	isb	sy
 8004a82:	f3bf 8f4f 	dsb	sy
 8004a86:	f7ff f9e7 	bl	8003e58 <xTaskIncrementTick>
 8004a8a:	b128      	cbz	r0, 8004a98 <xPortSysTickHandler+0x24>
 8004a8c:	f04f 23e0 	mov.w	r3, #3758153728	; 0xe000e000
 8004a90:	f04f 5280 	mov.w	r2, #268435456	; 0x10000000
 8004a94:	f8c3 2d04 	str.w	r2, [r3, #3332]	; 0xd04
 8004a98:	2300      	movs	r3, #0
 8004a9a:	f383 8811 	msr	BASEPRI, r3
 8004a9e:	bd08      	pop	{r3, pc}

08004aa0 <vPortSetupTimerInterrupt>:
 8004aa0:	f04f 22e0 	mov.w	r2, #3758153728	; 0xe000e000
 8004aa4:	2300      	movs	r3, #0
 8004aa6:	6113      	str	r3, [r2, #16]
 8004aa8:	6193      	str	r3, [r2, #24]
 8004aaa:	4b05      	ldr	r3, [pc, #20]	; (8004ac0 <vPortSetupTimerInterrupt+0x20>)
 8004aac:	f44f 717a 	mov.w	r1, #1000	; 0x3e8
 8004ab0:	681b      	ldr	r3, [r3, #0]
 8004ab2:	fbb3 f3f1 	udiv	r3, r3, r1
 8004ab6:	3b01      	subs	r3, #1
 8004ab8:	6153      	str	r3, [r2, #20]
 8004aba:	2307      	movs	r3, #7
 8004abc:	6113      	str	r3, [r2, #16]
 8004abe:	4770      	bx	lr
 8004ac0:	20000010 	.word	0x20000010

08004ac4 <xPortStartScheduler>:
 8004ac4:	f04f 23e0 	mov.w	r3, #3758153728	; 0xe000e000
 8004ac8:	b537      	push	{r0, r1, r2, r4, r5, lr}
 8004aca:	f8d3 1d00 	ldr.w	r1, [r3, #3328]	; 0xd00
 8004ace:	4a3a      	ldr	r2, [pc, #232]	; (8004bb8 <xPortStartScheduler+0xf4>)
 8004ad0:	4291      	cmp	r1, r2
 8004ad2:	d108      	bne.n	8004ae6 <xPortStartScheduler+0x22>
 8004ad4:	f04f 0350 	mov.w	r3, #80	; 0x50
 8004ad8:	f383 8811 	msr	BASEPRI, r3
 8004adc:	f3bf 8f6f 	isb	sy
 8004ae0:	f3bf 8f4f 	dsb	sy
 8004ae4:	e7fe      	b.n	8004ae4 <xPortStartScheduler+0x20>
 8004ae6:	f8d3 2d00 	ldr.w	r2, [r3, #3328]	; 0xd00
 8004aea:	4b34      	ldr	r3, [pc, #208]	; (8004bbc <xPortStartScheduler+0xf8>)
 8004aec:	429a      	cmp	r2, r3
 8004aee:	d108      	bne.n	8004b02 <xPortStartScheduler+0x3e>
 8004af0:	f04f 0350 	mov.w	r3, #80	; 0x50
 8004af4:	f383 8811 	msr	BASEPRI, r3
 8004af8:	f3bf 8f6f 	isb	sy
 8004afc:	f3bf 8f4f 	dsb	sy
 8004b00:	e7fe      	b.n	8004b00 <xPortStartScheduler+0x3c>
 8004b02:	4b2f      	ldr	r3, [pc, #188]	; (8004bc0 <xPortStartScheduler+0xfc>)
 8004b04:	781a      	ldrb	r2, [r3, #0]
 8004b06:	b2d2      	uxtb	r2, r2
 8004b08:	9201      	str	r2, [sp, #4]
 8004b0a:	22ff      	movs	r2, #255	; 0xff
 8004b0c:	701a      	strb	r2, [r3, #0]
 8004b0e:	781b      	ldrb	r3, [r3, #0]
 8004b10:	4a2c      	ldr	r2, [pc, #176]	; (8004bc4 <xPortStartScheduler+0x100>)
 8004b12:	b2db      	uxtb	r3, r3
 8004b14:	f88d 3003 	strb.w	r3, [sp, #3]
 8004b18:	f89d 3003 	ldrb.w	r3, [sp, #3]
 8004b1c:	f003 0350 	and.w	r3, r3, #80	; 0x50
 8004b20:	7013      	strb	r3, [r2, #0]
 8004b22:	4a29      	ldr	r2, [pc, #164]	; (8004bc8 <xPortStartScheduler+0x104>)
 8004b24:	2307      	movs	r3, #7
 8004b26:	6013      	str	r3, [r2, #0]
 8004b28:	2100      	movs	r1, #0
 8004b2a:	f89d 0003 	ldrb.w	r0, [sp, #3]
 8004b2e:	0600      	lsls	r0, r0, #24
 8004b30:	f103 34ff 	add.w	r4, r3, #4294967295
 8004b34:	d40c      	bmi.n	8004b50 <xPortStartScheduler+0x8c>
 8004b36:	b111      	cbz	r1, 8004b3e <xPortStartScheduler+0x7a>
 8004b38:	2b03      	cmp	r3, #3
 8004b3a:	6013      	str	r3, [r2, #0]
 8004b3c:	d011      	beq.n	8004b62 <xPortStartScheduler+0x9e>
 8004b3e:	f04f 0350 	mov.w	r3, #80	; 0x50
 8004b42:	f383 8811 	msr	BASEPRI, r3
 8004b46:	f3bf 8f6f 	isb	sy
 8004b4a:	f3bf 8f4f 	dsb	sy
 8004b4e:	e7fe      	b.n	8004b4e <xPortStartScheduler+0x8a>
 8004b50:	f89d 3003 	ldrb.w	r3, [sp, #3]
 8004b54:	005b      	lsls	r3, r3, #1
 8004b56:	b2db      	uxtb	r3, r3
 8004b58:	f88d 3003 	strb.w	r3, [sp, #3]
 8004b5c:	2101      	movs	r1, #1
 8004b5e:	4623      	mov	r3, r4
 8004b60:	e7e3      	b.n	8004b2a <xPortStartScheduler+0x66>
 8004b62:	f44f 7340 	mov.w	r3, #768	; 0x300
 8004b66:	6013      	str	r3, [r2, #0]
 8004b68:	9b01      	ldr	r3, [sp, #4]
 8004b6a:	4a15      	ldr	r2, [pc, #84]	; (8004bc0 <xPortStartScheduler+0xfc>)
 8004b6c:	f04f 24e0 	mov.w	r4, #3758153728	; 0xe000e000
 8004b70:	b2db      	uxtb	r3, r3
 8004b72:	7013      	strb	r3, [r2, #0]
 8004b74:	f8d4 3d20 	ldr.w	r3, [r4, #3360]	; 0xd20
 8004b78:	f443 0370 	orr.w	r3, r3, #15728640	; 0xf00000
 8004b7c:	f8c4 3d20 	str.w	r3, [r4, #3360]	; 0xd20
 8004b80:	f8d4 3d20 	ldr.w	r3, [r4, #3360]	; 0xd20
 8004b84:	f043 4370 	orr.w	r3, r3, #4026531840	; 0xf0000000
 8004b88:	f8c4 3d20 	str.w	r3, [r4, #3360]	; 0xd20
 8004b8c:	f7ff ff88 	bl	8004aa0 <vPortSetupTimerInterrupt>
 8004b90:	4b0e      	ldr	r3, [pc, #56]	; (8004bcc <xPortStartScheduler+0x108>)
 8004b92:	2500      	movs	r5, #0
 8004b94:	601d      	str	r5, [r3, #0]
 8004b96:	f7ff feb1 	bl	80048fc <vPortEnableVFP>
 8004b9a:	f8d4 3f34 	ldr.w	r3, [r4, #3892]	; 0xf34
 8004b9e:	f043 4340 	orr.w	r3, r3, #3221225472	; 0xc0000000
 8004ba2:	f8c4 3f34 	str.w	r3, [r4, #3892]	; 0xf34
 8004ba6:	f7ff fe95 	bl	80048d4 <prvPortStartFirstTask>
 8004baa:	f7ff fa83 	bl	80040b4 <vTaskSwitchContext>
 8004bae:	f7ff feaf 	bl	8004910 <prvTaskExitError>
 8004bb2:	4628      	mov	r0, r5
 8004bb4:	b003      	add	sp, #12
 8004bb6:	bd30      	pop	{r4, r5, pc}
 8004bb8:	410fc271 	.word	0x410fc271
 8004bbc:	410fc270 	.word	0x410fc270
 8004bc0:	e000e400 	.word	0xe000e400
 8004bc4:	20000f5c 	.word	0x20000f5c
 8004bc8:	20000f60 	.word	0x20000f60
 8004bcc:	2000001c 	.word	0x2000001c

08004bd0 <vPortValidateInterruptPriority>:
 8004bd0:	f3ef 8305 	mrs	r3, IPSR
 8004bd4:	2b0f      	cmp	r3, #15
 8004bd6:	d90e      	bls.n	8004bf6 <vPortValidateInterruptPriority+0x26>
 8004bd8:	4a11      	ldr	r2, [pc, #68]	; (8004c20 <vPortValidateInterruptPriority+0x50>)
 8004bda:	5c9b      	ldrb	r3, [r3, r2]
 8004bdc:	4a11      	ldr	r2, [pc, #68]	; (8004c24 <vPortValidateInterruptPriority+0x54>)
 8004bde:	7812      	ldrb	r2, [r2, #0]
 8004be0:	429a      	cmp	r2, r3
 8004be2:	d908      	bls.n	8004bf6 <vPortValidateInterruptPriority+0x26>
 8004be4:	f04f 0350 	mov.w	r3, #80	; 0x50
 8004be8:	f383 8811 	msr	BASEPRI, r3
 8004bec:	f3bf 8f6f 	isb	sy
 8004bf0:	f3bf 8f4f 	dsb	sy
 8004bf4:	e7fe      	b.n	8004bf4 <vPortValidateInterruptPriority+0x24>
 8004bf6:	f04f 23e0 	mov.w	r3, #3758153728	; 0xe000e000
 8004bfa:	4a0b      	ldr	r2, [pc, #44]	; (8004c28 <vPortValidateInterruptPriority+0x58>)
 8004bfc:	f8d3 3d0c 	ldr.w	r3, [r3, #3340]	; 0xd0c
 8004c00:	6812      	ldr	r2, [r2, #0]
 8004c02:	f403 63e0 	and.w	r3, r3, #1792	; 0x700
 8004c06:	4293      	cmp	r3, r2
 8004c08:	d908      	bls.n	8004c1c <vPortValidateInterruptPriority+0x4c>
 8004c0a:	f04f 0350 	mov.w	r3, #80	; 0x50
 8004c0e:	f383 8811 	msr	BASEPRI, r3
 8004c12:	f3bf 8f6f 	isb	sy
 8004c16:	f3bf 8f4f 	dsb	sy
 8004c1a:	e7fe      	b.n	8004c1a <vPortValidateInterruptPriority+0x4a>
 8004c1c:	4770      	bx	lr
 8004c1e:	bf00      	nop
 8004c20:	e000e3f0 	.word	0xe000e3f0
 8004c24:	20000f5c 	.word	0x20000f5c
 8004c28:	20000f60 	.word	0x20000f60

08004c2c <prvInsertBlockIntoFreeList>:
 8004c2c:	b510      	push	{r4, lr}
 8004c2e:	4b10      	ldr	r3, [pc, #64]	; (8004c70 <prvInsertBlockIntoFreeList+0x44>)
 8004c30:	461a      	mov	r2, r3
 8004c32:	681b      	ldr	r3, [r3, #0]
 8004c34:	4283      	cmp	r3, r0
 8004c36:	d3fb      	bcc.n	8004c30 <prvInsertBlockIntoFreeList+0x4>
 8004c38:	6854      	ldr	r4, [r2, #4]
 8004c3a:	1911      	adds	r1, r2, r4
 8004c3c:	4288      	cmp	r0, r1
 8004c3e:	bf01      	itttt	eq
 8004c40:	6841      	ldreq	r1, [r0, #4]
 8004c42:	4610      	moveq	r0, r2
 8004c44:	1909      	addeq	r1, r1, r4
 8004c46:	6051      	streq	r1, [r2, #4]
 8004c48:	6844      	ldr	r4, [r0, #4]
 8004c4a:	1901      	adds	r1, r0, r4
 8004c4c:	428b      	cmp	r3, r1
 8004c4e:	d10c      	bne.n	8004c6a <prvInsertBlockIntoFreeList+0x3e>
 8004c50:	4908      	ldr	r1, [pc, #32]	; (8004c74 <prvInsertBlockIntoFreeList+0x48>)
 8004c52:	6809      	ldr	r1, [r1, #0]
 8004c54:	428b      	cmp	r3, r1
 8004c56:	d003      	beq.n	8004c60 <prvInsertBlockIntoFreeList+0x34>
 8004c58:	6859      	ldr	r1, [r3, #4]
 8004c5a:	4421      	add	r1, r4
 8004c5c:	6041      	str	r1, [r0, #4]
 8004c5e:	6819      	ldr	r1, [r3, #0]
 8004c60:	6001      	str	r1, [r0, #0]
 8004c62:	4290      	cmp	r0, r2
 8004c64:	bf18      	it	ne
 8004c66:	6010      	strne	r0, [r2, #0]
 8004c68:	bd10      	pop	{r4, pc}
 8004c6a:	4619      	mov	r1, r3
 8004c6c:	e7f8      	b.n	8004c60 <prvInsertBlockIntoFreeList+0x34>
 8004c6e:	bf00      	nop
 8004c70:	20004b7c 	.word	0x20004b7c
 8004c74:	20000f64 	.word	0x20000f64

08004c78 <pvPortMalloc>:
 8004c78:	e92d 41f0 	stmdb	sp!, {r4, r5, r6, r7, r8, lr}
 8004c7c:	4604      	mov	r4, r0
 8004c7e:	f7ff f8dd 	bl	8003e3c <vTaskSuspendAll>
 8004c82:	4942      	ldr	r1, [pc, #264]	; (8004d8c <pvPortMalloc+0x114>)
 8004c84:	4d42      	ldr	r5, [pc, #264]	; (8004d90 <pvPortMalloc+0x118>)
 8004c86:	680b      	ldr	r3, [r1, #0]
 8004c88:	bb0b      	cbnz	r3, 8004cce <pvPortMalloc+0x56>
 8004c8a:	4a42      	ldr	r2, [pc, #264]	; (8004d94 <pvPortMalloc+0x11c>)
 8004c8c:	0756      	lsls	r6, r2, #29
 8004c8e:	bf1f      	itttt	ne
 8004c90:	1dd0      	addne	r0, r2, #7
 8004c92:	f020 0007 	bicne.w	r0, r0, #7
 8004c96:	f502 5270 	addne.w	r2, r2, #15360	; 0x3c00
 8004c9a:	1a13      	subne	r3, r2, r0
 8004c9c:	bf0c      	ite	eq
 8004c9e:	f44f 5370 	moveq.w	r3, #15360	; 0x3c00
 8004ca2:	4602      	movne	r2, r0
 8004ca4:	4413      	add	r3, r2
 8004ca6:	4e3c      	ldr	r6, [pc, #240]	; (8004d98 <pvPortMalloc+0x120>)
 8004ca8:	3b08      	subs	r3, #8
 8004caa:	f023 0307 	bic.w	r3, r3, #7
 8004cae:	2000      	movs	r0, #0
 8004cb0:	6070      	str	r0, [r6, #4]
 8004cb2:	6032      	str	r2, [r6, #0]
 8004cb4:	e9c3 0000 	strd	r0, r0, [r3]
 8004cb8:	1a98      	subs	r0, r3, r2
 8004cba:	e9c2 3000 	strd	r3, r0, [r2]
 8004cbe:	600b      	str	r3, [r1, #0]
 8004cc0:	4b36      	ldr	r3, [pc, #216]	; (8004d9c <pvPortMalloc+0x124>)
 8004cc2:	6018      	str	r0, [r3, #0]
 8004cc4:	4b36      	ldr	r3, [pc, #216]	; (8004da0 <pvPortMalloc+0x128>)
 8004cc6:	6018      	str	r0, [r3, #0]
 8004cc8:	f04f 4300 	mov.w	r3, #2147483648	; 0x80000000
 8004ccc:	602b      	str	r3, [r5, #0]
 8004cce:	682e      	ldr	r6, [r5, #0]
 8004cd0:	4226      	tst	r6, r4
 8004cd2:	d155      	bne.n	8004d80 <pvPortMalloc+0x108>
 8004cd4:	2c00      	cmp	r4, #0
 8004cd6:	d046      	beq.n	8004d66 <pvPortMalloc+0xee>
 8004cd8:	f104 0308 	add.w	r3, r4, #8
 8004cdc:	0760      	lsls	r0, r4, #29
 8004cde:	bf1c      	itt	ne
 8004ce0:	f023 0307 	bicne.w	r3, r3, #7
 8004ce4:	3308      	addne	r3, #8
 8004ce6:	2b00      	cmp	r3, #0
 8004ce8:	d04a      	beq.n	8004d80 <pvPortMalloc+0x108>
 8004cea:	4f2d      	ldr	r7, [pc, #180]	; (8004da0 <pvPortMalloc+0x128>)
 8004cec:	683c      	ldr	r4, [r7, #0]
 8004cee:	429c      	cmp	r4, r3
 8004cf0:	d346      	bcc.n	8004d80 <pvPortMalloc+0x108>
 8004cf2:	4a29      	ldr	r2, [pc, #164]	; (8004d98 <pvPortMalloc+0x120>)
 8004cf4:	6815      	ldr	r5, [r2, #0]
 8004cf6:	6868      	ldr	r0, [r5, #4]
 8004cf8:	4298      	cmp	r0, r3
 8004cfa:	d204      	bcs.n	8004d06 <pvPortMalloc+0x8e>
 8004cfc:	f8d5 c000 	ldr.w	ip, [r5]
 8004d00:	f1bc 0f00 	cmp.w	ip, #0
 8004d04:	d115      	bne.n	8004d32 <pvPortMalloc+0xba>
 8004d06:	6809      	ldr	r1, [r1, #0]
 8004d08:	42a9      	cmp	r1, r5
 8004d0a:	d039      	beq.n	8004d80 <pvPortMalloc+0x108>
 8004d0c:	6829      	ldr	r1, [r5, #0]
 8004d0e:	f8d2 8000 	ldr.w	r8, [r2]
 8004d12:	6011      	str	r1, [r2, #0]
 8004d14:	1ac2      	subs	r2, r0, r3
 8004d16:	2a10      	cmp	r2, #16
 8004d18:	d912      	bls.n	8004d40 <pvPortMalloc+0xc8>
 8004d1a:	18e8      	adds	r0, r5, r3
 8004d1c:	0741      	lsls	r1, r0, #29
 8004d1e:	d00b      	beq.n	8004d38 <pvPortMalloc+0xc0>
 8004d20:	f04f 0350 	mov.w	r3, #80	; 0x50
 8004d24:	f383 8811 	msr	BASEPRI, r3
 8004d28:	f3bf 8f6f 	isb	sy
 8004d2c:	f3bf 8f4f 	dsb	sy
 8004d30:	e7fe      	b.n	8004d30 <pvPortMalloc+0xb8>
 8004d32:	462a      	mov	r2, r5
 8004d34:	4665      	mov	r5, ip
 8004d36:	e7de      	b.n	8004cf6 <pvPortMalloc+0x7e>
 8004d38:	6042      	str	r2, [r0, #4]
 8004d3a:	606b      	str	r3, [r5, #4]
 8004d3c:	f7ff ff76 	bl	8004c2c <prvInsertBlockIntoFreeList>
 8004d40:	686a      	ldr	r2, [r5, #4]
 8004d42:	4916      	ldr	r1, [pc, #88]	; (8004d9c <pvPortMalloc+0x124>)
 8004d44:	1aa4      	subs	r4, r4, r2
 8004d46:	4316      	orrs	r6, r2
 8004d48:	4a16      	ldr	r2, [pc, #88]	; (8004da4 <pvPortMalloc+0x12c>)
 8004d4a:	6808      	ldr	r0, [r1, #0]
 8004d4c:	603c      	str	r4, [r7, #0]
 8004d4e:	2300      	movs	r3, #0
 8004d50:	602b      	str	r3, [r5, #0]
 8004d52:	6813      	ldr	r3, [r2, #0]
 8004d54:	606e      	str	r6, [r5, #4]
 8004d56:	4284      	cmp	r4, r0
 8004d58:	f103 0301 	add.w	r3, r3, #1
 8004d5c:	bf38      	it	cc
 8004d5e:	600c      	strcc	r4, [r1, #0]
 8004d60:	6013      	str	r3, [r2, #0]
 8004d62:	f108 0408 	add.w	r4, r8, #8
 8004d66:	f7ff f90d 	bl	8003f84 <xTaskResumeAll>
 8004d6a:	0763      	lsls	r3, r4, #29
 8004d6c:	d00a      	beq.n	8004d84 <pvPortMalloc+0x10c>
 8004d6e:	f04f 0350 	mov.w	r3, #80	; 0x50
 8004d72:	f383 8811 	msr	BASEPRI, r3
 8004d76:	f3bf 8f6f 	isb	sy
 8004d7a:	f3bf 8f4f 	dsb	sy
 8004d7e:	e7fe      	b.n	8004d7e <pvPortMalloc+0x106>
 8004d80:	2400      	movs	r4, #0
 8004d82:	e7f0      	b.n	8004d66 <pvPortMalloc+0xee>
 8004d84:	4620      	mov	r0, r4
 8004d86:	e8bd 81f0 	ldmia.w	sp!, {r4, r5, r6, r7, r8, pc}
 8004d8a:	bf00      	nop
 8004d8c:	20000f64 	.word	0x20000f64
 8004d90:	20004b68 	.word	0x20004b68
 8004d94:	20000f68 	.word	0x20000f68
 8004d98:	20004b7c 	.word	0x20004b7c
 8004d9c:	20004b70 	.word	0x20004b70
 8004da0:	20004b6c 	.word	0x20004b6c
 8004da4:	20004b74 	.word	0x20004b74

08004da8 <vPortFree>:
 8004da8:	b510      	push	{r4, lr}
 8004daa:	4604      	mov	r4, r0
 8004dac:	b390      	cbz	r0, 8004e14 <vPortFree+0x6c>
 8004dae:	4a1a      	ldr	r2, [pc, #104]	; (8004e18 <vPortFree+0x70>)
 8004db0:	f850 3c04 	ldr.w	r3, [r0, #-4]
 8004db4:	6812      	ldr	r2, [r2, #0]
 8004db6:	4213      	tst	r3, r2
 8004db8:	d108      	bne.n	8004dcc <vPortFree+0x24>
 8004dba:	f04f 0350 	mov.w	r3, #80	; 0x50
 8004dbe:	f383 8811 	msr	BASEPRI, r3
 8004dc2:	f3bf 8f6f 	isb	sy
 8004dc6:	f3bf 8f4f 	dsb	sy
 8004dca:	e7fe      	b.n	8004dca <vPortFree+0x22>
 8004dcc:	f850 1c08 	ldr.w	r1, [r0, #-8]
 8004dd0:	b141      	cbz	r1, 8004de4 <vPortFree+0x3c>
 8004dd2:	f04f 0350 	mov.w	r3, #80	; 0x50
 8004dd6:	f383 8811 	msr	BASEPRI, r3
 8004dda:	f3bf 8f6f 	isb	sy
 8004dde:	f3bf 8f4f 	dsb	sy
 8004de2:	e7fe      	b.n	8004de2 <vPortFree+0x3a>
 8004de4:	ea23 0302 	bic.w	r3, r3, r2
 8004de8:	f840 3c04 	str.w	r3, [r0, #-4]
 8004dec:	f7ff f826 	bl	8003e3c <vTaskSuspendAll>
 8004df0:	4a0a      	ldr	r2, [pc, #40]	; (8004e1c <vPortFree+0x74>)
 8004df2:	f854 3c04 	ldr.w	r3, [r4, #-4]
 8004df6:	6811      	ldr	r1, [r2, #0]
 8004df8:	f1a4 0008 	sub.w	r0, r4, #8
 8004dfc:	440b      	add	r3, r1
 8004dfe:	6013      	str	r3, [r2, #0]
 8004e00:	f7ff ff14 	bl	8004c2c <prvInsertBlockIntoFreeList>
 8004e04:	4a06      	ldr	r2, [pc, #24]	; (8004e20 <vPortFree+0x78>)
 8004e06:	6813      	ldr	r3, [r2, #0]
 8004e08:	e8bd 4010 	ldmia.w	sp!, {r4, lr}
 8004e0c:	3301      	adds	r3, #1
 8004e0e:	6013      	str	r3, [r2, #0]
 8004e10:	f7ff b8b8 	b.w	8003f84 <xTaskResumeAll>
 8004e14:	bd10      	pop	{r4, pc}
 8004e16:	bf00      	nop
 8004e18:	20004b68 	.word	0x20004b68
 8004e1c:	20004b6c 	.word	0x20004b6c
 8004e20:	20004b78 	.word	0x20004b78

08004e24 <memset>:
 8004e24:	4402      	add	r2, r0
 8004e26:	4603      	mov	r3, r0
 8004e28:	4293      	cmp	r3, r2
 8004e2a:	d100      	bne.n	8004e2e <memset+0xa>
 8004e2c:	4770      	bx	lr
 8004e2e:	f803 1b01 	strb.w	r1, [r3], #1
 8004e32:	e7f9      	b.n	8004e28 <memset+0x4>

08004e34 <__libc_init_array>:
 8004e34:	b570      	push	{r4, r5, r6, lr}
 8004e36:	4d0d      	ldr	r5, [pc, #52]	; (8004e6c <__libc_init_array+0x38>)
 8004e38:	4c0d      	ldr	r4, [pc, #52]	; (8004e70 <__libc_init_array+0x3c>)
 8004e3a:	1b64      	subs	r4, r4, r5
 8004e3c:	10a4      	asrs	r4, r4, #2
 8004e3e:	2600      	movs	r6, #0
 8004e40:	42a6      	cmp	r6, r4
 8004e42:	d109      	bne.n	8004e58 <__libc_init_array+0x24>
 8004e44:	4d0b      	ldr	r5, [pc, #44]	; (8004e74 <__libc_init_array+0x40>)
 8004e46:	4c0c      	ldr	r4, [pc, #48]	; (8004e78 <__libc_init_array+0x44>)
 8004e48:	f000 f826 	bl	8004e98 <_init>
 8004e4c:	1b64      	subs	r4, r4, r5
 8004e4e:	10a4      	asrs	r4, r4, #2
 8004e50:	2600      	movs	r6, #0
 8004e52:	42a6      	cmp	r6, r4
 8004e54:	d105      	bne.n	8004e62 <__libc_init_array+0x2e>
 8004e56:	bd70      	pop	{r4, r5, r6, pc}
 8004e58:	f855 3b04 	ldr.w	r3, [r5], #4
 8004e5c:	4798      	blx	r3
 8004e5e:	3601      	adds	r6, #1
 8004e60:	e7ee      	b.n	8004e40 <__libc_init_array+0xc>
 8004e62:	f855 3b04 	ldr.w	r3, [r5], #4
 8004e66:	4798      	blx	r3
 8004e68:	3601      	adds	r6, #1
 8004e6a:	e7f2      	b.n	8004e52 <__libc_init_array+0x1e>
 8004e6c:	08004fe8 	.word	0x08004fe8
 8004e70:	08004fe8 	.word	0x08004fe8
 8004e74:	08004fe8 	.word	0x08004fe8
 8004e78:	08004fec 	.word	0x08004fec

08004e7c <memcpy>:
 8004e7c:	440a      	add	r2, r1
 8004e7e:	4291      	cmp	r1, r2
 8004e80:	f100 33ff 	add.w	r3, r0, #4294967295
 8004e84:	d100      	bne.n	8004e88 <memcpy+0xc>
 8004e86:	4770      	bx	lr
 8004e88:	b510      	push	{r4, lr}
 8004e8a:	f811 4b01 	ldrb.w	r4, [r1], #1
 8004e8e:	f803 4f01 	strb.w	r4, [r3, #1]!
 8004e92:	4291      	cmp	r1, r2
 8004e94:	d1f9      	bne.n	8004e8a <memcpy+0xe>
 8004e96:	bd10      	pop	{r4, pc}

08004e98 <_init>:
 8004e98:	b5f8      	push	{r3, r4, r5, r6, r7, lr}
 8004e9a:	bf00      	nop
 8004e9c:	bcf8      	pop	{r3, r4, r5, r6, r7}
 8004e9e:	bc08      	pop	{r3}
 8004ea0:	469e      	mov	lr, r3
 8004ea2:	4770      	bx	lr

08004ea4 <_fini>:
 8004ea4:	b5f8      	push	{r3, r4, r5, r6, r7, lr}
 8004ea6:	bf00      	nop
 8004ea8:	bcf8      	pop	{r3, r4, r5, r6, r7}
 8004eaa:	bc08      	pop	{r3}
 8004eac:	469e      	mov	lr, r3
 8004eae:	4770      	bx	lr
